Archive member included to satisfy reference by file (symbol)

c:/program files (x86)/arm gnu toolchain arm-none-eabi/12.3 rel1/bin/../lib/gcc/arm-none-eabi/12.3.1/thumb/v7ve+simd/hard\libgcc.a(_aeabi_uldivmod.o)
                              build/obj/Drivers/STM32MP13xx_HAL_Driver/Src/stm32mp13xx_hal.o (__aeabi_uldivmod)
c:/program files (x86)/arm gnu toolchain arm-none-eabi/12.3 rel1/bin/../lib/gcc/arm-none-eabi/12.3.1/thumb/v7ve+simd/hard\libgcc.a(_udivmoddi4.o)
                              c:/program files (x86)/arm gnu toolchain arm-none-eabi/12.3 rel1/bin/../lib/gcc/arm-none-eabi/12.3.1/thumb/v7ve+simd/hard\libgcc.a(_aeabi_uldivmod.o) (__udivmoddi4)
c:/program files (x86)/arm gnu toolchain arm-none-eabi/12.3 rel1/bin/../lib/gcc/arm-none-eabi/12.3.1/thumb/v7ve+simd/hard\libgcc.a(_dvmd_tls.o)
                              c:/program files (x86)/arm gnu toolchain arm-none-eabi/12.3 rel1/bin/../lib/gcc/arm-none-eabi/12.3.1/thumb/v7ve+simd/hard\libgcc.a(_aeabi_uldivmod.o) (__aeabi_ldiv0)
c:/program files (x86)/arm gnu toolchain arm-none-eabi/12.3 rel1/bin/../lib/gcc/arm-none-eabi/12.3.1/thumb/v7ve+simd/hard\libc_nano.a(libc_a-printf.o)
                              build/obj/Src/main.o (printf)
c:/program files (x86)/arm gnu toolchain arm-none-eabi/12.3 rel1/bin/../lib/gcc/arm-none-eabi/12.3.1/thumb/v7ve+simd/hard\libc_nano.a(libc_a-memset.o)
                              build/obj/Src/main.o (memset)
c:/program files (x86)/arm gnu toolchain arm-none-eabi/12.3 rel1/bin/../lib/gcc/arm-none-eabi/12.3.1/thumb/v7ve+simd/hard\libc_nano.a(libc_a-impure.o)
                              c:/program files (x86)/arm gnu toolchain arm-none-eabi/12.3 rel1/bin/../lib/gcc/arm-none-eabi/12.3.1/thumb/v7ve+simd/hard\libc_nano.a(libc_a-printf.o) (_impure_ptr)
c:/program files (x86)/arm gnu toolchain arm-none-eabi/12.3 rel1/bin/../lib/gcc/arm-none-eabi/12.3.1/thumb/v7ve+simd/hard\libc_nano.a(libc_a-errno.o)
                              build/obj/Drivers/syscalls.o (__errno)
c:/program files (x86)/arm gnu toolchain arm-none-eabi/12.3 rel1/bin/../lib/gcc/arm-none-eabi/12.3.1/thumb/v7ve+simd/hard\libc_nano.a(libc_a-init.o)
                              build/obj/Drivers/startup_stm32mp135fxx_ca7.o (__libc_init_array)
c:/program files (x86)/arm gnu toolchain arm-none-eabi/12.3 rel1/bin/../lib/gcc/arm-none-eabi/12.3.1/thumb/v7ve+simd/hard\libc_nano.a(libc_a-nano-vfprintf.o)
                              c:/program files (x86)/arm gnu toolchain arm-none-eabi/12.3 rel1/bin/../lib/gcc/arm-none-eabi/12.3.1/thumb/v7ve+simd/hard\libc_nano.a(libc_a-printf.o) (_vfprintf_r)
c:/program files (x86)/arm gnu toolchain arm-none-eabi/12.3 rel1/bin/../lib/gcc/arm-none-eabi/12.3.1/thumb/v7ve+simd/hard\libc_nano.a(libc_a-nano-vfprintf_i.o)
                              c:/program files (x86)/arm gnu toolchain arm-none-eabi/12.3 rel1/bin/../lib/gcc/arm-none-eabi/12.3.1/thumb/v7ve+simd/hard\libc_nano.a(libc_a-nano-vfprintf.o) (_printf_i)
c:/program files (x86)/arm gnu toolchain arm-none-eabi/12.3 rel1/bin/../lib/gcc/arm-none-eabi/12.3.1/thumb/v7ve+simd/hard\libc_nano.a(libc_a-findfp.o)
                              c:/program files (x86)/arm gnu toolchain arm-none-eabi/12.3 rel1/bin/../lib/gcc/arm-none-eabi/12.3.1/thumb/v7ve+simd/hard\libc_nano.a(libc_a-nano-vfprintf.o) (__sinit)
c:/program files (x86)/arm gnu toolchain arm-none-eabi/12.3 rel1/bin/../lib/gcc/arm-none-eabi/12.3.1/thumb/v7ve+simd/hard\libc_nano.a(libc_a-fvwrite.o)
                              c:/program files (x86)/arm gnu toolchain arm-none-eabi/12.3 rel1/bin/../lib/gcc/arm-none-eabi/12.3.1/thumb/v7ve+simd/hard\libc_nano.a(libc_a-nano-vfprintf.o) (__sfvwrite_r)
c:/program files (x86)/arm gnu toolchain arm-none-eabi/12.3 rel1/bin/../lib/gcc/arm-none-eabi/12.3.1/thumb/v7ve+simd/hard\libc_nano.a(libc_a-fwalk.o)
                              c:/program files (x86)/arm gnu toolchain arm-none-eabi/12.3 rel1/bin/../lib/gcc/arm-none-eabi/12.3.1/thumb/v7ve+simd/hard\libc_nano.a(libc_a-findfp.o) (_fwalk_sglue)
c:/program files (x86)/arm gnu toolchain arm-none-eabi/12.3 rel1/bin/../lib/gcc/arm-none-eabi/12.3.1/thumb/v7ve+simd/hard\libc_nano.a(libc_a-stdio.o)
                              c:/program files (x86)/arm gnu toolchain arm-none-eabi/12.3 rel1/bin/../lib/gcc/arm-none-eabi/12.3.1/thumb/v7ve+simd/hard\libc_nano.a(libc_a-findfp.o) (__sread)
c:/program files (x86)/arm gnu toolchain arm-none-eabi/12.3 rel1/bin/../lib/gcc/arm-none-eabi/12.3.1/thumb/v7ve+simd/hard\libc_nano.a(libc_a-wbuf.o)
                              c:/program files (x86)/arm gnu toolchain arm-none-eabi/12.3 rel1/bin/../lib/gcc/arm-none-eabi/12.3.1/thumb/v7ve+simd/hard\libc_nano.a(libc_a-nano-vfprintf.o) (__swbuf_r)
c:/program files (x86)/arm gnu toolchain arm-none-eabi/12.3 rel1/bin/../lib/gcc/arm-none-eabi/12.3.1/thumb/v7ve+simd/hard\libc_nano.a(libc_a-wsetup.o)
                              c:/program files (x86)/arm gnu toolchain arm-none-eabi/12.3 rel1/bin/../lib/gcc/arm-none-eabi/12.3.1/thumb/v7ve+simd/hard\libc_nano.a(libc_a-nano-vfprintf.o) (__swsetup_r)
c:/program files (x86)/arm gnu toolchain arm-none-eabi/12.3 rel1/bin/../lib/gcc/arm-none-eabi/12.3.1/thumb/v7ve+simd/hard\libc_nano.a(libc_a-memmove.o)
                              c:/program files (x86)/arm gnu toolchain arm-none-eabi/12.3 rel1/bin/../lib/gcc/arm-none-eabi/12.3.1/thumb/v7ve+simd/hard\libc_nano.a(libc_a-fvwrite.o) (memmove)
c:/program files (x86)/arm gnu toolchain arm-none-eabi/12.3 rel1/bin/../lib/gcc/arm-none-eabi/12.3.1/thumb/v7ve+simd/hard\libc_nano.a(libc_a-closer.o)
                              c:/program files (x86)/arm gnu toolchain arm-none-eabi/12.3 rel1/bin/../lib/gcc/arm-none-eabi/12.3.1/thumb/v7ve+simd/hard\libc_nano.a(libc_a-stdio.o) (_close_r)
c:/program files (x86)/arm gnu toolchain arm-none-eabi/12.3 rel1/bin/../lib/gcc/arm-none-eabi/12.3.1/thumb/v7ve+simd/hard\libc_nano.a(libc_a-reent.o)
                              c:/program files (x86)/arm gnu toolchain arm-none-eabi/12.3 rel1/bin/../lib/gcc/arm-none-eabi/12.3.1/thumb/v7ve+simd/hard\libc_nano.a(libc_a-closer.o) (errno)
c:/program files (x86)/arm gnu toolchain arm-none-eabi/12.3 rel1/bin/../lib/gcc/arm-none-eabi/12.3.1/thumb/v7ve+simd/hard\libc_nano.a(libc_a-lseekr.o)
                              c:/program files (x86)/arm gnu toolchain arm-none-eabi/12.3 rel1/bin/../lib/gcc/arm-none-eabi/12.3.1/thumb/v7ve+simd/hard\libc_nano.a(libc_a-stdio.o) (_lseek_r)
c:/program files (x86)/arm gnu toolchain arm-none-eabi/12.3 rel1/bin/../lib/gcc/arm-none-eabi/12.3.1/thumb/v7ve+simd/hard\libc_nano.a(libc_a-readr.o)
                              c:/program files (x86)/arm gnu toolchain arm-none-eabi/12.3 rel1/bin/../lib/gcc/arm-none-eabi/12.3.1/thumb/v7ve+simd/hard\libc_nano.a(libc_a-stdio.o) (_read_r)
c:/program files (x86)/arm gnu toolchain arm-none-eabi/12.3 rel1/bin/../lib/gcc/arm-none-eabi/12.3.1/thumb/v7ve+simd/hard\libc_nano.a(libc_a-writer.o)
                              c:/program files (x86)/arm gnu toolchain arm-none-eabi/12.3 rel1/bin/../lib/gcc/arm-none-eabi/12.3.1/thumb/v7ve+simd/hard\libc_nano.a(libc_a-stdio.o) (_write_r)
c:/program files (x86)/arm gnu toolchain arm-none-eabi/12.3 rel1/bin/../lib/gcc/arm-none-eabi/12.3.1/thumb/v7ve+simd/hard\libc_nano.a(libc_a-lock.o)
                              c:/program files (x86)/arm gnu toolchain arm-none-eabi/12.3 rel1/bin/../lib/gcc/arm-none-eabi/12.3.1/thumb/v7ve+simd/hard\libc_nano.a(libc_a-findfp.o) (__retarget_lock_init_recursive)
c:/program files (x86)/arm gnu toolchain arm-none-eabi/12.3 rel1/bin/../lib/gcc/arm-none-eabi/12.3.1/thumb/v7ve+simd/hard\libc_nano.a(libc_a-memchr.o)
                              c:/program files (x86)/arm gnu toolchain arm-none-eabi/12.3 rel1/bin/../lib/gcc/arm-none-eabi/12.3.1/thumb/v7ve+simd/hard\libc_nano.a(libc_a-nano-vfprintf.o) (memchr)
c:/program files (x86)/arm gnu toolchain arm-none-eabi/12.3 rel1/bin/../lib/gcc/arm-none-eabi/12.3.1/thumb/v7ve+simd/hard\libc_nano.a(libc_a-memcpy-stub.o)
                              c:/program files (x86)/arm gnu toolchain arm-none-eabi/12.3 rel1/bin/../lib/gcc/arm-none-eabi/12.3.1/thumb/v7ve+simd/hard\libc_nano.a(libc_a-fvwrite.o) (memcpy)
c:/program files (x86)/arm gnu toolchain arm-none-eabi/12.3 rel1/bin/../lib/gcc/arm-none-eabi/12.3.1/thumb/v7ve+simd/hard\libc_nano.a(libc_a-freer.o)
                              c:/program files (x86)/arm gnu toolchain arm-none-eabi/12.3 rel1/bin/../lib/gcc/arm-none-eabi/12.3.1/thumb/v7ve+simd/hard\libc_nano.a(libc_a-fvwrite.o) (_free_r)
c:/program files (x86)/arm gnu toolchain arm-none-eabi/12.3 rel1/bin/../lib/gcc/arm-none-eabi/12.3.1/thumb/v7ve+simd/hard\libc_nano.a(libc_a-mallocr.o)
                              c:/program files (x86)/arm gnu toolchain arm-none-eabi/12.3 rel1/bin/../lib/gcc/arm-none-eabi/12.3.1/thumb/v7ve+simd/hard\libc_nano.a(libc_a-findfp.o) (_malloc_r)
c:/program files (x86)/arm gnu toolchain arm-none-eabi/12.3 rel1/bin/../lib/gcc/arm-none-eabi/12.3.1/thumb/v7ve+simd/hard\libc_nano.a(libc_a-mlock.o)
                              c:/program files (x86)/arm gnu toolchain arm-none-eabi/12.3 rel1/bin/../lib/gcc/arm-none-eabi/12.3.1/thumb/v7ve+simd/hard\libc_nano.a(libc_a-freer.o) (__malloc_lock)
c:/program files (x86)/arm gnu toolchain arm-none-eabi/12.3 rel1/bin/../lib/gcc/arm-none-eabi/12.3.1/thumb/v7ve+simd/hard\libc_nano.a(libc_a-reallocr.o)
                              c:/program files (x86)/arm gnu toolchain arm-none-eabi/12.3 rel1/bin/../lib/gcc/arm-none-eabi/12.3.1/thumb/v7ve+simd/hard\libc_nano.a(libc_a-fvwrite.o) (_realloc_r)
c:/program files (x86)/arm gnu toolchain arm-none-eabi/12.3 rel1/bin/../lib/gcc/arm-none-eabi/12.3.1/thumb/v7ve+simd/hard\libc_nano.a(libc_a-fflush.o)
                              c:/program files (x86)/arm gnu toolchain arm-none-eabi/12.3 rel1/bin/../lib/gcc/arm-none-eabi/12.3.1/thumb/v7ve+simd/hard\libc_nano.a(libc_a-findfp.o) (_fflush_r)
c:/program files (x86)/arm gnu toolchain arm-none-eabi/12.3 rel1/bin/../lib/gcc/arm-none-eabi/12.3.1/thumb/v7ve+simd/hard\libc_nano.a(libc_a-makebuf.o)
                              c:/program files (x86)/arm gnu toolchain arm-none-eabi/12.3 rel1/bin/../lib/gcc/arm-none-eabi/12.3.1/thumb/v7ve+simd/hard\libc_nano.a(libc_a-wsetup.o) (__smakebuf_r)
c:/program files (x86)/arm gnu toolchain arm-none-eabi/12.3 rel1/bin/../lib/gcc/arm-none-eabi/12.3.1/thumb/v7ve+simd/hard\libc_nano.a(libc_a-fstatr.o)
                              c:/program files (x86)/arm gnu toolchain arm-none-eabi/12.3 rel1/bin/../lib/gcc/arm-none-eabi/12.3.1/thumb/v7ve+simd/hard\libc_nano.a(libc_a-makebuf.o) (_fstat_r)
c:/program files (x86)/arm gnu toolchain arm-none-eabi/12.3 rel1/bin/../lib/gcc/arm-none-eabi/12.3.1/thumb/v7ve+simd/hard\libc_nano.a(libc_a-isattyr.o)
                              c:/program files (x86)/arm gnu toolchain arm-none-eabi/12.3 rel1/bin/../lib/gcc/arm-none-eabi/12.3.1/thumb/v7ve+simd/hard\libc_nano.a(libc_a-makebuf.o) (_isatty_r)
c:/program files (x86)/arm gnu toolchain arm-none-eabi/12.3 rel1/bin/../lib/gcc/arm-none-eabi/12.3.1/thumb/v7ve+simd/hard\libc_nano.a(libc_a-sbrkr.o)
                              c:/program files (x86)/arm gnu toolchain arm-none-eabi/12.3 rel1/bin/../lib/gcc/arm-none-eabi/12.3.1/thumb/v7ve+simd/hard\libc_nano.a(libc_a-mallocr.o) (_sbrk_r)
c:/program files (x86)/arm gnu toolchain arm-none-eabi/12.3 rel1/bin/../lib/gcc/arm-none-eabi/12.3.1/thumb/v7ve+simd/hard\libc_nano.a(libc_a-msizer.o)
                              c:/program files (x86)/arm gnu toolchain arm-none-eabi/12.3 rel1/bin/../lib/gcc/arm-none-eabi/12.3.1/thumb/v7ve+simd/hard\libc_nano.a(libc_a-reallocr.o) (_malloc_usable_size_r)
c:/program files (x86)/arm gnu toolchain arm-none-eabi/12.3 rel1/bin/../lib/gcc/arm-none-eabi/12.3.1/thumb/v7ve+simd/hard\libnosys.a(sbrk.o)
                              c:/program files (x86)/arm gnu toolchain arm-none-eabi/12.3 rel1/bin/../lib/gcc/arm-none-eabi/12.3.1/thumb/v7ve+simd/hard\libc_nano.a(libc_a-sbrkr.o) (_sbrk)

Discarded input sections

 .text          0x00000000        0x0 build/obj/Src/main.o
 .data          0x00000000        0x0 build/obj/Src/main.o
 .bss           0x00000000        0x0 build/obj/Src/main.o
 .text.HAL_UART_MspDeInit
                0x00000000       0x78 build/obj/Src/main.o
 .text          0x00000000        0x0 build/obj/Drivers/syscalls.o
 .data          0x00000000        0x0 build/obj/Drivers/syscalls.o
 .bss           0x00000000        0x0 build/obj/Drivers/syscalls.o
 .bss.__env     0x00000000        0x4 build/obj/Drivers/syscalls.o
 .data.environ  0x00000000        0x4 build/obj/Drivers/syscalls.o
 .text.initialise_monitor_handles
                0x00000000       0x18 build/obj/Drivers/syscalls.o
 .text._getpid  0x00000000       0x1c build/obj/Drivers/syscalls.o
 .text._kill    0x00000000       0x34 build/obj/Drivers/syscalls.o
 .text._exit    0x00000000       0x20 build/obj/Drivers/syscalls.o
 .text._open    0x00000000       0x2c build/obj/Drivers/syscalls.o
 .text._wait    0x00000000       0x30 build/obj/Drivers/syscalls.o
 .text._unlink  0x00000000       0x30 build/obj/Drivers/syscalls.o
 .text._times   0x00000000       0x24 build/obj/Drivers/syscalls.o
 .text._stat    0x00000000       0x34 build/obj/Drivers/syscalls.o
 .text._link    0x00000000       0x34 build/obj/Drivers/syscalls.o
 .text._fork    0x00000000       0x24 build/obj/Drivers/syscalls.o
 .text._execve  0x00000000       0x38 build/obj/Drivers/syscalls.o
 .text          0x00000000        0x0 build/obj/Drivers/mmu_stm32mp13xx.o
 .data          0x00000000        0x0 build/obj/Drivers/mmu_stm32mp13xx.o
 .bss           0x00000000        0x0 build/obj/Drivers/mmu_stm32mp13xx.o
 .text.MMU_XNSection
                0x00000000       0x60 build/obj/Drivers/mmu_stm32mp13xx.o
 .text.MMU_DomainSection
                0x00000000       0x60 build/obj/Drivers/mmu_stm32mp13xx.o
 .text.MMU_PSection
                0x00000000       0x60 build/obj/Drivers/mmu_stm32mp13xx.o
 .text.MMU_APSection
                0x00000000      0x208 build/obj/Drivers/mmu_stm32mp13xx.o
 .text.MMU_SharedSection
                0x00000000       0x60 build/obj/Drivers/mmu_stm32mp13xx.o
 .text.MMU_GlobalSection
                0x00000000       0x60 build/obj/Drivers/mmu_stm32mp13xx.o
 .text.MMU_SecureSection
                0x00000000       0x60 build/obj/Drivers/mmu_stm32mp13xx.o
 .text.MMU_XNPage
                0x00000000       0xa8 build/obj/Drivers/mmu_stm32mp13xx.o
 .text.MMU_DomainPage
                0x00000000       0x60 build/obj/Drivers/mmu_stm32mp13xx.o
 .text.MMU_PPage
                0x00000000       0x60 build/obj/Drivers/mmu_stm32mp13xx.o
 .text.MMU_APPage
                0x00000000      0x208 build/obj/Drivers/mmu_stm32mp13xx.o
 .text.MMU_SharedPage
                0x00000000       0x60 build/obj/Drivers/mmu_stm32mp13xx.o
 .text.MMU_GlobalPage
                0x00000000       0x60 build/obj/Drivers/mmu_stm32mp13xx.o
 .text.MMU_SecurePage
                0x00000000       0x60 build/obj/Drivers/mmu_stm32mp13xx.o
 .text.MMU_MemorySection
                0x00000000      0x1ac build/obj/Drivers/mmu_stm32mp13xx.o
 .text.MMU_MemoryPage
                0x00000000      0x1c8 build/obj/Drivers/mmu_stm32mp13xx.o
 .text.MMU_GetSectionDescriptor
                0x00000000       0xe4 build/obj/Drivers/mmu_stm32mp13xx.o
 .text.MMU_GetPageDescriptor
                0x00000000      0x248 build/obj/Drivers/mmu_stm32mp13xx.o
 .text.MMU_TTSection
                0x00000000       0xb0 build/obj/Drivers/mmu_stm32mp13xx.o
 .text.MMU_TTPage4k
                0x00000000       0xf8 build/obj/Drivers/mmu_stm32mp13xx.o
 .bss.Sect_SO   0x00000000        0x4 build/obj/Drivers/mmu_stm32mp13xx.o
 .bss.Sect_Normal
                0x00000000        0x4 build/obj/Drivers/mmu_stm32mp13xx.o
 .bss.Sect_Normal_Shared
                0x00000000        0x4 build/obj/Drivers/mmu_stm32mp13xx.o
 .bss.Sect_Device_RO
                0x00000000        0x4 build/obj/Drivers/mmu_stm32mp13xx.o
 .bss.Sect_Device_RW
                0x00000000        0x4 build/obj/Drivers/mmu_stm32mp13xx.o
 .bss.Sect_Device_RW_Shared
                0x00000000        0x4 build/obj/Drivers/mmu_stm32mp13xx.o
 .bss.Page_L1_4k
                0x00000000        0x4 build/obj/Drivers/mmu_stm32mp13xx.o
 .bss.Page_4k_Normal_Cod
                0x00000000        0x4 build/obj/Drivers/mmu_stm32mp13xx.o
 .bss.Page_4k_Normal_Cod_NonCacheable
                0x00000000        0x4 build/obj/Drivers/mmu_stm32mp13xx.o
 .bss.Page_4k_Normal_RO
                0x00000000        0x4 build/obj/Drivers/mmu_stm32mp13xx.o
 .bss.Page_4k_Normal_RO_NonCacheable
                0x00000000        0x4 build/obj/Drivers/mmu_stm32mp13xx.o
 .bss.Page_4k_Normal_RW
                0x00000000        0x4 build/obj/Drivers/mmu_stm32mp13xx.o
 .bss.Page_4k_Normal_RW_NonCacheable
                0x00000000        0x4 build/obj/Drivers/mmu_stm32mp13xx.o
 .bss.Page_4k_Device_RW
                0x00000000        0x4 build/obj/Drivers/mmu_stm32mp13xx.o
 .text.MMU_CreateTranslationTable
                0x00000000      0x968 build/obj/Drivers/mmu_stm32mp13xx.o
 .debug_info    0x00000000      0xf4c build/obj/Drivers/mmu_stm32mp13xx.o
 .debug_abbrev  0x00000000      0x23c build/obj/Drivers/mmu_stm32mp13xx.o
 .debug_aranges
                0x00000000       0xc0 build/obj/Drivers/mmu_stm32mp13xx.o
 .debug_rnglists
                0x00000000       0x95 build/obj/Drivers/mmu_stm32mp13xx.o
 .debug_line    0x00000000      0x8a0 build/obj/Drivers/mmu_stm32mp13xx.o
 .debug_str     0x00000000     0x1102 build/obj/Drivers/mmu_stm32mp13xx.o
 .comment       0x00000000       0x46 build/obj/Drivers/mmu_stm32mp13xx.o
 .debug_frame   0x00000000      0x2c0 build/obj/Drivers/mmu_stm32mp13xx.o
 .ARM.attributes
                0x00000000       0x3b build/obj/Drivers/mmu_stm32mp13xx.o
 .text          0x00000000        0x0 build/obj/Drivers/system_stm32mp13xx_A7.o
 .data          0x00000000        0x0 build/obj/Drivers/system_stm32mp13xx_A7.o
 .bss           0x00000000        0x0 build/obj/Drivers/system_stm32mp13xx_A7.o
 .text.GetPLL1PClockFreq
                0x00000000      0x198 build/obj/Drivers/system_stm32mp13xx_A7.o
 .text.SystemInit_Interrupts_SoftIRQn_Handler
                0x00000000       0x28 build/obj/Drivers/system_stm32mp13xx_A7.o
 .text.SystemInit_cpu1
                0x00000000      0x314 build/obj/Drivers/system_stm32mp13xx_A7.o
 .text.SystemCoreClockUpdate
                0x00000000      0x114 build/obj/Drivers/system_stm32mp13xx_A7.o
 .text          0x00000000        0x0 build/obj/Drivers/startup_stm32mp135fxx_ca7.o
 .data          0x00000000        0x0 build/obj/Drivers/startup_stm32mp135fxx_ca7.o
 .bss           0x00000000        0x0 build/obj/Drivers/startup_stm32mp135fxx_ca7.o
 .text.SecurePhysicalTimer_IRQHandler
                0x00000000       0x18 build/obj/Drivers/startup_stm32mp135fxx_ca7.o
 .text          0x00000000        0x0 build/obj/Drivers/CMSIS/Core_A/Source/irq_ctrl_gic.o
 .data          0x00000000        0x0 build/obj/Drivers/CMSIS/Core_A/Source/irq_ctrl_gic.o
 .bss           0x00000000        0x0 build/obj/Drivers/CMSIS/Core_A/Source/irq_ctrl_gic.o
 .text.GIC_GetTarget
                0x00000000       0x54 build/obj/Drivers/CMSIS/Core_A/Source/irq_ctrl_gic.o
 .text.GIC_GetEnableIRQ
                0x00000000       0x50 build/obj/Drivers/CMSIS/Core_A/Source/irq_ctrl_gic.o
 .text.GIC_GetPendingIRQ
                0x00000000       0xbc build/obj/Drivers/CMSIS/Core_A/Source/irq_ctrl_gic.o
 .text.GIC_SetPendingIRQ
                0x00000000       0x78 build/obj/Drivers/CMSIS/Core_A/Source/irq_ctrl_gic.o
 .text.GIC_GetConfiguration
                0x00000000       0x54 build/obj/Drivers/CMSIS/Core_A/Source/irq_ctrl_gic.o
 .text.GIC_GetInterfacePriorityMask
                0x00000000       0x24 build/obj/Drivers/CMSIS/Core_A/Source/irq_ctrl_gic.o
 .text.GIC_GetBinaryPoint
                0x00000000       0x24 build/obj/Drivers/CMSIS/Core_A/Source/irq_ctrl_gic.o
 .text.GIC_SetGroup
                0x00000000       0xac build/obj/Drivers/CMSIS/Core_A/Source/irq_ctrl_gic.o
 .text.IRQ_Disable
                0x00000000       0x5c build/obj/Drivers/CMSIS/Core_A/Source/irq_ctrl_gic.o
 .text.IRQ_GetEnableState
                0x00000000       0x58 build/obj/Drivers/CMSIS/Core_A/Source/irq_ctrl_gic.o
 .text.IRQ_SetMode
                0x00000000      0x1c4 build/obj/Drivers/CMSIS/Core_A/Source/irq_ctrl_gic.o
 .text.IRQ_GetMode
                0x00000000       0xbc build/obj/Drivers/CMSIS/Core_A/Source/irq_ctrl_gic.o
 .text.IRQ_GetActiveFIQ
                0x00000000       0x1c build/obj/Drivers/CMSIS/Core_A/Source/irq_ctrl_gic.o
 .text.IRQ_SetPending
                0x00000000       0x5c build/obj/Drivers/CMSIS/Core_A/Source/irq_ctrl_gic.o
 .text.IRQ_GetPending
                0x00000000       0x5c build/obj/Drivers/CMSIS/Core_A/Source/irq_ctrl_gic.o
 .text.IRQ_GetPriority
                0x00000000       0x58 build/obj/Drivers/CMSIS/Core_A/Source/irq_ctrl_gic.o
 .text.IRQ_SetPriorityMask
                0x00000000       0x28 build/obj/Drivers/CMSIS/Core_A/Source/irq_ctrl_gic.o
 .text.IRQ_GetPriorityMask
                0x00000000       0x18 build/obj/Drivers/CMSIS/Core_A/Source/irq_ctrl_gic.o
 .text.IRQ_SetPriorityGroupBits
                0x00000000       0x68 build/obj/Drivers/CMSIS/Core_A/Source/irq_ctrl_gic.o
 .text.IRQ_GetPriorityGroupBits
                0x00000000       0x30 build/obj/Drivers/CMSIS/Core_A/Source/irq_ctrl_gic.o
 .text          0x00000000        0x0 build/obj/Drivers/STM32MP13xx_HAL_Driver/Src/stm32mp13xx_hal.o
 .data          0x00000000        0x0 build/obj/Drivers/STM32MP13xx_HAL_Driver/Src/stm32mp13xx_hal.o
 .bss           0x00000000        0x0 build/obj/Drivers/STM32MP13xx_HAL_Driver/Src/stm32mp13xx_hal.o
 .text.HAL_DeInit
                0x00000000       0x18 build/obj/Drivers/STM32MP13xx_HAL_Driver/Src/stm32mp13xx_hal.o
 .text.HAL_MspDeInit
                0x00000000       0x18 build/obj/Drivers/STM32MP13xx_HAL_Driver/Src/stm32mp13xx_hal.o
 .text.HAL_SuspendTick
                0x00000000       0x18 build/obj/Drivers/STM32MP13xx_HAL_Driver/Src/stm32mp13xx_hal.o
 .text.HAL_ResumeTick
                0x00000000       0x18 build/obj/Drivers/STM32MP13xx_HAL_Driver/Src/stm32mp13xx_hal.o
 .text.HAL_GetHalVersion
                0x00000000       0x20 build/obj/Drivers/STM32MP13xx_HAL_Driver/Src/stm32mp13xx_hal.o
 .text.HAL_GetREVID
                0x00000000       0x28 build/obj/Drivers/STM32MP13xx_HAL_Driver/Src/stm32mp13xx_hal.o
 .text.HAL_GetDEVID
                0x00000000       0x28 build/obj/Drivers/STM32MP13xx_HAL_Driver/Src/stm32mp13xx_hal.o
 .text.HAL_GetUIDw0
                0x00000000       0x24 build/obj/Drivers/STM32MP13xx_HAL_Driver/Src/stm32mp13xx_hal.o
 .text.HAL_GetUIDw1
                0x00000000       0x24 build/obj/Drivers/STM32MP13xx_HAL_Driver/Src/stm32mp13xx_hal.o
 .text.HAL_GetUIDw2
                0x00000000       0x24 build/obj/Drivers/STM32MP13xx_HAL_Driver/Src/stm32mp13xx_hal.o
 .text.HAL_EnableDBGWakeUp
                0x00000000       0x34 build/obj/Drivers/STM32MP13xx_HAL_Driver/Src/stm32mp13xx_hal.o
 .text.HAL_DisableDBGWakeUp
                0x00000000       0x34 build/obj/Drivers/STM32MP13xx_HAL_Driver/Src/stm32mp13xx_hal.o
 .text.HAL_EnableDBGLPMode
                0x00000000       0x34 build/obj/Drivers/STM32MP13xx_HAL_Driver/Src/stm32mp13xx_hal.o
 .text.HAL_DisableDBGLPMode
                0x00000000       0x34 build/obj/Drivers/STM32MP13xx_HAL_Driver/Src/stm32mp13xx_hal.o
 .text.HAL_SYSCFG_VREFBUF_VoltageScalingConfig
                0x00000000       0x44 build/obj/Drivers/STM32MP13xx_HAL_Driver/Src/stm32mp13xx_hal.o
 .text.HAL_SYSCFG_VREFBUF_HighImpedanceConfig
                0x00000000       0x44 build/obj/Drivers/STM32MP13xx_HAL_Driver/Src/stm32mp13xx_hal.o
 .text.HAL_SYSCFG_VREFBUF_TrimmingConfig
                0x00000000       0x44 build/obj/Drivers/STM32MP13xx_HAL_Driver/Src/stm32mp13xx_hal.o
 .text.HAL_SYSCFG_EnableVREFBUF
                0x00000000       0x7c build/obj/Drivers/STM32MP13xx_HAL_Driver/Src/stm32mp13xx_hal.o
 .text.HAL_SYSCFG_DisableVREFBUF
                0x00000000       0x34 build/obj/Drivers/STM32MP13xx_HAL_Driver/Src/stm32mp13xx_hal.o
 .text.HAL_SYSCFG_ETHInterfaceSelect
                0x00000000       0x30 build/obj/Drivers/STM32MP13xx_HAL_Driver/Src/stm32mp13xx_hal.o
 .text.HAL_SYSCFG_EnableBOOST
                0x00000000       0x28 build/obj/Drivers/STM32MP13xx_HAL_Driver/Src/stm32mp13xx_hal.o
 .text.HAL_SYSCFG_DisableBOOST
                0x00000000       0x28 build/obj/Drivers/STM32MP13xx_HAL_Driver/Src/stm32mp13xx_hal.o
 .text.HAL_SYSCFG_EnableIOSpeedOptimize
                0x00000000      0x1a0 build/obj/Drivers/STM32MP13xx_HAL_Driver/Src/stm32mp13xx_hal.o
 .text.HAL_SYSCFG_DisableIOSpeedOptimize
                0x00000000      0x1a0 build/obj/Drivers/STM32MP13xx_HAL_Driver/Src/stm32mp13xx_hal.o
 .text.HAL_SYSCFG_EnableCompensationCell
                0x00000000       0x80 build/obj/Drivers/STM32MP13xx_HAL_Driver/Src/stm32mp13xx_hal.o
 .text.HAL_SYSCFG_DisableCompensationCell
                0x00000000       0x80 build/obj/Drivers/STM32MP13xx_HAL_Driver/Src/stm32mp13xx_hal.o
 .text.HAL_SYSCFG_CompensationCodeSelect
                0x00000000       0xc0 build/obj/Drivers/STM32MP13xx_HAL_Driver/Src/stm32mp13xx_hal.o
 .text.HAL_SYSCFG_CompensationCodeConfig
                0x00000000       0xfc build/obj/Drivers/STM32MP13xx_HAL_Driver/Src/stm32mp13xx_hal.o
 .text.HAL_SYSCFG_DisableIOCompensation
                0x00000000      0x120 build/obj/Drivers/STM32MP13xx_HAL_Driver/Src/stm32mp13xx_hal.o
 .text.HAL_SYSCFG_EnableIOCompensation
                0x00000000      0x180 build/obj/Drivers/STM32MP13xx_HAL_Driver/Src/stm32mp13xx_hal.o
 .text          0x00000000        0x0 build/obj/Drivers/STM32MP13xx_HAL_Driver/Src/stm32mp13xx_hal_dma.o
 .data          0x00000000        0x0 build/obj/Drivers/STM32MP13xx_HAL_Driver/Src/stm32mp13xx_hal_dma.o
 .bss           0x00000000        0x0 build/obj/Drivers/STM32MP13xx_HAL_Driver/Src/stm32mp13xx_hal_dma.o
 .text.HAL_DMA_Init
                0x00000000      0x410 build/obj/Drivers/STM32MP13xx_HAL_Driver/Src/stm32mp13xx_hal_dma.o
 .text.HAL_DMA_DeInit
                0x00000000      0x1f4 build/obj/Drivers/STM32MP13xx_HAL_Driver/Src/stm32mp13xx_hal_dma.o
 .text.HAL_DMA_Start
                0x00000000      0x108 build/obj/Drivers/STM32MP13xx_HAL_Driver/Src/stm32mp13xx_hal_dma.o
 .text.HAL_DMA_Start_IT
                0x00000000      0x1b4 build/obj/Drivers/STM32MP13xx_HAL_Driver/Src/stm32mp13xx_hal_dma.o
 .text.HAL_DMA_Abort
                0x00000000      0x1dc build/obj/Drivers/STM32MP13xx_HAL_Driver/Src/stm32mp13xx_hal_dma.o
 .text.HAL_DMA_Abort_IT
                0x00000000       0x88 build/obj/Drivers/STM32MP13xx_HAL_Driver/Src/stm32mp13xx_hal_dma.o
 .text.HAL_DMA_PollForTransfer
                0x00000000      0x528 build/obj/Drivers/STM32MP13xx_HAL_Driver/Src/stm32mp13xx_hal_dma.o
 .text.HAL_DMA_IRQHandler
                0x00000000      0x664 build/obj/Drivers/STM32MP13xx_HAL_Driver/Src/stm32mp13xx_hal_dma.o
 .text.HAL_DMA_RegisterCallback
                0x00000000      0x12c build/obj/Drivers/STM32MP13xx_HAL_Driver/Src/stm32mp13xx_hal_dma.o
 .text.HAL_DMA_UnRegisterCallback
                0x00000000      0x178 build/obj/Drivers/STM32MP13xx_HAL_Driver/Src/stm32mp13xx_hal_dma.o
 .text.HAL_DMA_GetState
                0x00000000       0x2c build/obj/Drivers/STM32MP13xx_HAL_Driver/Src/stm32mp13xx_hal_dma.o
 .text.HAL_DMA_GetError
                0x00000000       0x28 build/obj/Drivers/STM32MP13xx_HAL_Driver/Src/stm32mp13xx_hal_dma.o
 .text.DMA_SetConfig
                0x00000000      0x10c build/obj/Drivers/STM32MP13xx_HAL_Driver/Src/stm32mp13xx_hal_dma.o
 .text.DMA_CalcBaseAndBitshift
                0x00000000       0xb0 build/obj/Drivers/STM32MP13xx_HAL_Driver/Src/stm32mp13xx_hal_dma.o
 .text.DMA_CheckFifoParam
                0x00000000      0x194 build/obj/Drivers/STM32MP13xx_HAL_Driver/Src/stm32mp13xx_hal_dma.o
 .text.DMA_CalcDMAMUXChannelBaseAndMask
                0x00000000      0x134 build/obj/Drivers/STM32MP13xx_HAL_Driver/Src/stm32mp13xx_hal_dma.o
 .text.DMA_CalcDMAMUXRequestGenBaseAndMask
                0x00000000       0xf8 build/obj/Drivers/STM32MP13xx_HAL_Driver/Src/stm32mp13xx_hal_dma.o
 .rodata.flagBitshiftOffset.0
                0x00000000        0x8 build/obj/Drivers/STM32MP13xx_HAL_Driver/Src/stm32mp13xx_hal_dma.o
 .debug_info    0x00000000      0xab8 build/obj/Drivers/STM32MP13xx_HAL_Driver/Src/stm32mp13xx_hal_dma.o
 .debug_abbrev  0x00000000      0x25c build/obj/Drivers/STM32MP13xx_HAL_Driver/Src/stm32mp13xx_hal_dma.o
 .debug_aranges
                0x00000000       0xa0 build/obj/Drivers/STM32MP13xx_HAL_Driver/Src/stm32mp13xx_hal_dma.o
 .debug_rnglists
                0x00000000       0x82 build/obj/Drivers/STM32MP13xx_HAL_Driver/Src/stm32mp13xx_hal_dma.o
 .debug_line    0x00000000      0xd06 build/obj/Drivers/STM32MP13xx_HAL_Driver/Src/stm32mp13xx_hal_dma.o
 .debug_str     0x00000000      0x916 build/obj/Drivers/STM32MP13xx_HAL_Driver/Src/stm32mp13xx_hal_dma.o
 .comment       0x00000000       0x46 build/obj/Drivers/STM32MP13xx_HAL_Driver/Src/stm32mp13xx_hal_dma.o
 .debug_frame   0x00000000      0x23c build/obj/Drivers/STM32MP13xx_HAL_Driver/Src/stm32mp13xx_hal_dma.o
 .ARM.attributes
                0x00000000       0x3b build/obj/Drivers/STM32MP13xx_HAL_Driver/Src/stm32mp13xx_hal_dma.o
 .text          0x00000000        0x0 build/obj/Drivers/STM32MP13xx_HAL_Driver/Src/stm32mp13xx_hal_dma_ex.o
 .data          0x00000000        0x0 build/obj/Drivers/STM32MP13xx_HAL_Driver/Src/stm32mp13xx_hal_dma_ex.o
 .bss           0x00000000        0x0 build/obj/Drivers/STM32MP13xx_HAL_Driver/Src/stm32mp13xx_hal_dma_ex.o
 .text.HAL_DMAEx_MultiBufferStart
                0x00000000      0x184 build/obj/Drivers/STM32MP13xx_HAL_Driver/Src/stm32mp13xx_hal_dma_ex.o
 .text.HAL_DMAEx_MultiBufferStart_IT
                0x00000000      0x258 build/obj/Drivers/STM32MP13xx_HAL_Driver/Src/stm32mp13xx_hal_dma_ex.o
 .text.HAL_DMAEx_ChangeMemory
                0x00000000       0x60 build/obj/Drivers/STM32MP13xx_HAL_Driver/Src/stm32mp13xx_hal_dma_ex.o
 .text.HAL_DMAEx_ConfigMuxSync
                0x00000000      0x154 build/obj/Drivers/STM32MP13xx_HAL_Driver/Src/stm32mp13xx_hal_dma_ex.o
 .text.HAL_DMAEx_ConfigMuxRequestGenerator
                0x00000000      0x118 build/obj/Drivers/STM32MP13xx_HAL_Driver/Src/stm32mp13xx_hal_dma_ex.o
 .text.HAL_DMAEx_EnableMuxRequestGenerator
                0x00000000       0x6c build/obj/Drivers/STM32MP13xx_HAL_Driver/Src/stm32mp13xx_hal_dma_ex.o
 .text.HAL_DMAEx_DisableMuxRequestGenerator
                0x00000000       0x6c build/obj/Drivers/STM32MP13xx_HAL_Driver/Src/stm32mp13xx_hal_dma_ex.o
 .text.HAL_DMAEx_MUX_IRQHandler
                0x00000000      0x134 build/obj/Drivers/STM32MP13xx_HAL_Driver/Src/stm32mp13xx_hal_dma_ex.o
 .text.DMA_MultiBufferSetConfig
                0x00000000       0x90 build/obj/Drivers/STM32MP13xx_HAL_Driver/Src/stm32mp13xx_hal_dma_ex.o
 .debug_info    0x00000000      0x823 build/obj/Drivers/STM32MP13xx_HAL_Driver/Src/stm32mp13xx_hal_dma_ex.o
 .debug_abbrev  0x00000000      0x1fe build/obj/Drivers/STM32MP13xx_HAL_Driver/Src/stm32mp13xx_hal_dma_ex.o
 .debug_aranges
                0x00000000       0x60 build/obj/Drivers/STM32MP13xx_HAL_Driver/Src/stm32mp13xx_hal_dma_ex.o
 .debug_rnglists
                0x00000000       0x49 build/obj/Drivers/STM32MP13xx_HAL_Driver/Src/stm32mp13xx_hal_dma_ex.o
 .debug_line    0x00000000      0x578 build/obj/Drivers/STM32MP13xx_HAL_Driver/Src/stm32mp13xx_hal_dma_ex.o
 .debug_str     0x00000000      0x7ef build/obj/Drivers/STM32MP13xx_HAL_Driver/Src/stm32mp13xx_hal_dma_ex.o
 .comment       0x00000000       0x46 build/obj/Drivers/STM32MP13xx_HAL_Driver/Src/stm32mp13xx_hal_dma_ex.o
 .debug_frame   0x00000000      0x134 build/obj/Drivers/STM32MP13xx_HAL_Driver/Src/stm32mp13xx_hal_dma_ex.o
 .ARM.attributes
                0x00000000       0x3b build/obj/Drivers/STM32MP13xx_HAL_Driver/Src/stm32mp13xx_hal_dma_ex.o
 .text          0x00000000        0x0 build/obj/Drivers/STM32MP13xx_HAL_Driver/Src/stm32mp13xx_hal_exti.o
 .data          0x00000000        0x0 build/obj/Drivers/STM32MP13xx_HAL_Driver/Src/stm32mp13xx_hal_exti.o
 .bss           0x00000000        0x0 build/obj/Drivers/STM32MP13xx_HAL_Driver/Src/stm32mp13xx_hal_exti.o
 .text.HAL_EXTI_SetConfigLine
                0x00000000      0x2f4 build/obj/Drivers/STM32MP13xx_HAL_Driver/Src/stm32mp13xx_hal_exti.o
 .text.HAL_EXTI_GetConfigLine
                0x00000000      0x234 build/obj/Drivers/STM32MP13xx_HAL_Driver/Src/stm32mp13xx_hal_exti.o
 .text.HAL_EXTI_ClearConfigLine
                0x00000000      0x1e0 build/obj/Drivers/STM32MP13xx_HAL_Driver/Src/stm32mp13xx_hal_exti.o
 .text.HAL_EXTI_RegisterCallback
                0x00000000       0xbc build/obj/Drivers/STM32MP13xx_HAL_Driver/Src/stm32mp13xx_hal_exti.o
 .text.HAL_EXTI_GetHandle
                0x00000000       0x48 build/obj/Drivers/STM32MP13xx_HAL_Driver/Src/stm32mp13xx_hal_exti.o
 .text.HAL_EXTI_IRQHandler
                0x00000000      0x104 build/obj/Drivers/STM32MP13xx_HAL_Driver/Src/stm32mp13xx_hal_exti.o
 .text.HAL_EXTI_GetPending
                0x00000000       0xb4 build/obj/Drivers/STM32MP13xx_HAL_Driver/Src/stm32mp13xx_hal_exti.o
 .text.HAL_EXTI_ClearPending
                0x00000000       0x98 build/obj/Drivers/STM32MP13xx_HAL_Driver/Src/stm32mp13xx_hal_exti.o
 .text.HAL_EXTI_GenerateSWI
                0x00000000       0x6c build/obj/Drivers/STM32MP13xx_HAL_Driver/Src/stm32mp13xx_hal_exti.o
 .debug_info    0x00000000      0x7ea build/obj/Drivers/STM32MP13xx_HAL_Driver/Src/stm32mp13xx_hal_exti.o
 .debug_abbrev  0x00000000      0x1a9 build/obj/Drivers/STM32MP13xx_HAL_Driver/Src/stm32mp13xx_hal_exti.o
 .debug_aranges
                0x00000000       0x60 build/obj/Drivers/STM32MP13xx_HAL_Driver/Src/stm32mp13xx_hal_exti.o
 .debug_rnglists
                0x00000000       0x4a build/obj/Drivers/STM32MP13xx_HAL_Driver/Src/stm32mp13xx_hal_exti.o
 .debug_line    0x00000000      0x543 build/obj/Drivers/STM32MP13xx_HAL_Driver/Src/stm32mp13xx_hal_exti.o
 .debug_str     0x00000000      0x54f build/obj/Drivers/STM32MP13xx_HAL_Driver/Src/stm32mp13xx_hal_exti.o
 .comment       0x00000000       0x46 build/obj/Drivers/STM32MP13xx_HAL_Driver/Src/stm32mp13xx_hal_exti.o
 .debug_frame   0x00000000      0x138 build/obj/Drivers/STM32MP13xx_HAL_Driver/Src/stm32mp13xx_hal_exti.o
 .ARM.attributes
                0x00000000       0x3b build/obj/Drivers/STM32MP13xx_HAL_Driver/Src/stm32mp13xx_hal_exti.o
 .text          0x00000000        0x0 build/obj/Drivers/STM32MP13xx_HAL_Driver/Src/stm32mp13xx_hal_gpio.o
 .data          0x00000000        0x0 build/obj/Drivers/STM32MP13xx_HAL_Driver/Src/stm32mp13xx_hal_gpio.o
 .bss           0x00000000        0x0 build/obj/Drivers/STM32MP13xx_HAL_Driver/Src/stm32mp13xx_hal_gpio.o
 .text.HAL_GPIO_DeInit
                0x00000000      0x38c build/obj/Drivers/STM32MP13xx_HAL_Driver/Src/stm32mp13xx_hal_gpio.o
 .text.HAL_GPIO_ReadPin
                0x00000000       0x58 build/obj/Drivers/STM32MP13xx_HAL_Driver/Src/stm32mp13xx_hal_gpio.o
 .text.HAL_GPIO_WriteMultipleStatePin
                0x00000000       0x50 build/obj/Drivers/STM32MP13xx_HAL_Driver/Src/stm32mp13xx_hal_gpio.o
 .text.HAL_GPIO_LockPin
                0x00000000       0x90 build/obj/Drivers/STM32MP13xx_HAL_Driver/Src/stm32mp13xx_hal_gpio.o
 .text.HAL_GPIO_EXTI_IRQHandler
                0x00000000       0x90 build/obj/Drivers/STM32MP13xx_HAL_Driver/Src/stm32mp13xx_hal_gpio.o
 .text.HAL_GPIO_EXTI_Rising_Callback
                0x00000000       0x24 build/obj/Drivers/STM32MP13xx_HAL_Driver/Src/stm32mp13xx_hal_gpio.o
 .text.HAL_GPIO_EXTI_Falling_Callback
                0x00000000       0x24 build/obj/Drivers/STM32MP13xx_HAL_Driver/Src/stm32mp13xx_hal_gpio.o
 .text          0x00000000        0x0 build/obj/Drivers/STM32MP13xx_HAL_Driver/Src/stm32mp13xx_hal_i2c.o
 .data          0x00000000        0x0 build/obj/Drivers/STM32MP13xx_HAL_Driver/Src/stm32mp13xx_hal_i2c.o
 .bss           0x00000000        0x0 build/obj/Drivers/STM32MP13xx_HAL_Driver/Src/stm32mp13xx_hal_i2c.o
 .text.HAL_I2C_DeInit
                0x00000000       0xa0 build/obj/Drivers/STM32MP13xx_HAL_Driver/Src/stm32mp13xx_hal_i2c.o
 .text.HAL_I2C_MspDeInit
                0x00000000       0x20 build/obj/Drivers/STM32MP13xx_HAL_Driver/Src/stm32mp13xx_hal_i2c.o
 .text.HAL_I2C_Master_Transmit
                0x00000000      0x3f8 build/obj/Drivers/STM32MP13xx_HAL_Driver/Src/stm32mp13xx_hal_i2c.o
 .text.HAL_I2C_Master_Receive
                0x00000000      0x370 build/obj/Drivers/STM32MP13xx_HAL_Driver/Src/stm32mp13xx_hal_i2c.o
 .text.HAL_I2C_Slave_Transmit
                0x00000000      0x490 build/obj/Drivers/STM32MP13xx_HAL_Driver/Src/stm32mp13xx_hal_i2c.o
 .text.HAL_I2C_Slave_Receive
                0x00000000      0x3d4 build/obj/Drivers/STM32MP13xx_HAL_Driver/Src/stm32mp13xx_hal_i2c.o
 .text.HAL_I2C_Master_Transmit_IT
                0x00000000      0x220 build/obj/Drivers/STM32MP13xx_HAL_Driver/Src/stm32mp13xx_hal_i2c.o
 .text.HAL_I2C_Master_Receive_IT
                0x00000000      0x17c build/obj/Drivers/STM32MP13xx_HAL_Driver/Src/stm32mp13xx_hal_i2c.o
 .text.HAL_I2C_Slave_Transmit_IT
                0x00000000      0x180 build/obj/Drivers/STM32MP13xx_HAL_Driver/Src/stm32mp13xx_hal_i2c.o
 .text.HAL_I2C_Slave_Receive_IT
                0x00000000      0x110 build/obj/Drivers/STM32MP13xx_HAL_Driver/Src/stm32mp13xx_hal_i2c.o
 .text.HAL_I2C_Master_Transmit_DMA
                0x00000000      0x3c8 build/obj/Drivers/STM32MP13xx_HAL_Driver/Src/stm32mp13xx_hal_i2c.o
 .text.HAL_I2C_Master_Receive_DMA
                0x00000000      0x338 build/obj/Drivers/STM32MP13xx_HAL_Driver/Src/stm32mp13xx_hal_i2c.o
 .text.HAL_I2C_Slave_Transmit_DMA
                0x00000000      0x334 build/obj/Drivers/STM32MP13xx_HAL_Driver/Src/stm32mp13xx_hal_i2c.o
 .text.HAL_I2C_Slave_Receive_DMA
                0x00000000      0x270 build/obj/Drivers/STM32MP13xx_HAL_Driver/Src/stm32mp13xx_hal_i2c.o
 .text.HAL_I2C_Mem_Write_IT
                0x00000000      0x1e0 build/obj/Drivers/STM32MP13xx_HAL_Driver/Src/stm32mp13xx_hal_i2c.o
 .text.HAL_I2C_Mem_Read_IT
                0x00000000      0x1d4 build/obj/Drivers/STM32MP13xx_HAL_Driver/Src/stm32mp13xx_hal_i2c.o
 .text.HAL_I2C_Mem_Write_DMA
                0x00000000      0x324 build/obj/Drivers/STM32MP13xx_HAL_Driver/Src/stm32mp13xx_hal_i2c.o
 .text.HAL_I2C_Mem_Read_DMA
                0x00000000      0x324 build/obj/Drivers/STM32MP13xx_HAL_Driver/Src/stm32mp13xx_hal_i2c.o
 .text.HAL_I2C_Master_Seq_Transmit_IT
                0x00000000      0x2ac build/obj/Drivers/STM32MP13xx_HAL_Driver/Src/stm32mp13xx_hal_i2c.o
 .text.HAL_I2C_Master_Seq_Transmit_DMA
                0x00000000      0x4a8 build/obj/Drivers/STM32MP13xx_HAL_Driver/Src/stm32mp13xx_hal_i2c.o
 .text.HAL_I2C_Master_Seq_Receive_IT
                0x00000000      0x1d4 build/obj/Drivers/STM32MP13xx_HAL_Driver/Src/stm32mp13xx_hal_i2c.o
 .text.HAL_I2C_Master_Seq_Receive_DMA
                0x00000000      0x390 build/obj/Drivers/STM32MP13xx_HAL_Driver/Src/stm32mp13xx_hal_i2c.o
 .text.HAL_I2C_Slave_Seq_Transmit_IT
                0x00000000      0x260 build/obj/Drivers/STM32MP13xx_HAL_Driver/Src/stm32mp13xx_hal_i2c.o
 .text.HAL_I2C_Slave_Seq_Transmit_DMA
                0x00000000      0x470 build/obj/Drivers/STM32MP13xx_HAL_Driver/Src/stm32mp13xx_hal_i2c.o
 .text.HAL_I2C_Slave_Seq_Receive_IT
                0x00000000      0x260 build/obj/Drivers/STM32MP13xx_HAL_Driver/Src/stm32mp13xx_hal_i2c.o
 .text.HAL_I2C_Slave_Seq_Receive_DMA
                0x00000000      0x470 build/obj/Drivers/STM32MP13xx_HAL_Driver/Src/stm32mp13xx_hal_i2c.o
 .text.HAL_I2C_EnableListen_IT
                0x00000000       0x64 build/obj/Drivers/STM32MP13xx_HAL_Driver/Src/stm32mp13xx_hal_i2c.o
 .text.HAL_I2C_DisableListen_IT
                0x00000000       0xa0 build/obj/Drivers/STM32MP13xx_HAL_Driver/Src/stm32mp13xx_hal_i2c.o
 .text.HAL_I2C_Master_Abort_IT
                0x00000000      0x108 build/obj/Drivers/STM32MP13xx_HAL_Driver/Src/stm32mp13xx_hal_i2c.o
 .text.HAL_I2C_EV_IRQHandler
                0x00000000       0x64 build/obj/Drivers/STM32MP13xx_HAL_Driver/Src/stm32mp13xx_hal_i2c.o
 .text.HAL_I2C_ER_IRQHandler
                0x00000000      0x130 build/obj/Drivers/STM32MP13xx_HAL_Driver/Src/stm32mp13xx_hal_i2c.o
 .text.HAL_I2C_MasterTxCpltCallback
                0x00000000       0x20 build/obj/Drivers/STM32MP13xx_HAL_Driver/Src/stm32mp13xx_hal_i2c.o
 .text.HAL_I2C_MasterRxCpltCallback
                0x00000000       0x20 build/obj/Drivers/STM32MP13xx_HAL_Driver/Src/stm32mp13xx_hal_i2c.o
 .text.HAL_I2C_SlaveTxCpltCallback
                0x00000000       0x20 build/obj/Drivers/STM32MP13xx_HAL_Driver/Src/stm32mp13xx_hal_i2c.o
 .text.HAL_I2C_SlaveRxCpltCallback
                0x00000000       0x20 build/obj/Drivers/STM32MP13xx_HAL_Driver/Src/stm32mp13xx_hal_i2c.o
 .text.HAL_I2C_AddrCallback
                0x00000000       0x30 build/obj/Drivers/STM32MP13xx_HAL_Driver/Src/stm32mp13xx_hal_i2c.o
 .text.HAL_I2C_ListenCpltCallback
                0x00000000       0x20 build/obj/Drivers/STM32MP13xx_HAL_Driver/Src/stm32mp13xx_hal_i2c.o
 .text.HAL_I2C_MemTxCpltCallback
                0x00000000       0x20 build/obj/Drivers/STM32MP13xx_HAL_Driver/Src/stm32mp13xx_hal_i2c.o
 .text.HAL_I2C_MemRxCpltCallback
                0x00000000       0x20 build/obj/Drivers/STM32MP13xx_HAL_Driver/Src/stm32mp13xx_hal_i2c.o
 .text.HAL_I2C_ErrorCallback
                0x00000000       0x20 build/obj/Drivers/STM32MP13xx_HAL_Driver/Src/stm32mp13xx_hal_i2c.o
 .text.HAL_I2C_AbortCpltCallback
                0x00000000       0x20 build/obj/Drivers/STM32MP13xx_HAL_Driver/Src/stm32mp13xx_hal_i2c.o
 .text.HAL_I2C_GetMode
                0x00000000       0x2c build/obj/Drivers/STM32MP13xx_HAL_Driver/Src/stm32mp13xx_hal_i2c.o
 .text.I2C_Master_ISR_IT
                0x00000000      0x400 build/obj/Drivers/STM32MP13xx_HAL_Driver/Src/stm32mp13xx_hal_i2c.o
 .text.I2C_Mem_ISR_IT
                0x00000000      0x408 build/obj/Drivers/STM32MP13xx_HAL_Driver/Src/stm32mp13xx_hal_i2c.o
 .text.I2C_Slave_ISR_IT
                0x00000000      0x36c build/obj/Drivers/STM32MP13xx_HAL_Driver/Src/stm32mp13xx_hal_i2c.o
 .text.I2C_Master_ISR_DMA
                0x00000000      0x320 build/obj/Drivers/STM32MP13xx_HAL_Driver/Src/stm32mp13xx_hal_i2c.o
 .text.I2C_Mem_ISR_DMA
                0x00000000      0x3f4 build/obj/Drivers/STM32MP13xx_HAL_Driver/Src/stm32mp13xx_hal_i2c.o
 .text.I2C_Slave_ISR_DMA
                0x00000000      0x2e8 build/obj/Drivers/STM32MP13xx_HAL_Driver/Src/stm32mp13xx_hal_i2c.o
 .text.I2C_ITAddrCplt
                0x00000000      0x1c4 build/obj/Drivers/STM32MP13xx_HAL_Driver/Src/stm32mp13xx_hal_i2c.o
 .text.I2C_ITMasterSeqCplt
                0x00000000       0xc8 build/obj/Drivers/STM32MP13xx_HAL_Driver/Src/stm32mp13xx_hal_i2c.o
 .text.I2C_ITSlaveSeqCplt
                0x00000000      0x130 build/obj/Drivers/STM32MP13xx_HAL_Driver/Src/stm32mp13xx_hal_i2c.o
 .text.I2C_ITMasterCplt
                0x00000000      0x29c build/obj/Drivers/STM32MP13xx_HAL_Driver/Src/stm32mp13xx_hal_i2c.o
 .text.I2C_ITSlaveCplt
                0x00000000      0x4d4 build/obj/Drivers/STM32MP13xx_HAL_Driver/Src/stm32mp13xx_hal_i2c.o
 .text.I2C_ITListenCplt
                0x00000000      0x128 build/obj/Drivers/STM32MP13xx_HAL_Driver/Src/stm32mp13xx_hal_i2c.o
 .text.I2C_ITError
                0x00000000      0x344 build/obj/Drivers/STM32MP13xx_HAL_Driver/Src/stm32mp13xx_hal_i2c.o
 .text.I2C_TreatErrorCallback
                0x00000000       0x80 build/obj/Drivers/STM32MP13xx_HAL_Driver/Src/stm32mp13xx_hal_i2c.o
 .text.I2C_DMAMasterTransmitCplt
                0x00000000      0x114 build/obj/Drivers/STM32MP13xx_HAL_Driver/Src/stm32mp13xx_hal_i2c.o
 .text.I2C_DMASlaveTransmitCplt
                0x00000000       0x70 build/obj/Drivers/STM32MP13xx_HAL_Driver/Src/stm32mp13xx_hal_i2c.o
 .text.I2C_DMAMasterReceiveCplt
                0x00000000      0x114 build/obj/Drivers/STM32MP13xx_HAL_Driver/Src/stm32mp13xx_hal_i2c.o
 .text.I2C_DMASlaveReceiveCplt
                0x00000000       0x7c build/obj/Drivers/STM32MP13xx_HAL_Driver/Src/stm32mp13xx_hal_i2c.o
 .text.I2C_DMAError
                0x00000000       0xd8 build/obj/Drivers/STM32MP13xx_HAL_Driver/Src/stm32mp13xx_hal_i2c.o
 .text.I2C_DMAAbort
                0x00000000       0x70 build/obj/Drivers/STM32MP13xx_HAL_Driver/Src/stm32mp13xx_hal_i2c.o
 .text.I2C_WaitOnRXNEFlagUntilTimeout
                0x00000000      0x1f4 build/obj/Drivers/STM32MP13xx_HAL_Driver/Src/stm32mp13xx_hal_i2c.o
 .text.I2C_Enable_IRQ
                0x00000000      0x1b4 build/obj/Drivers/STM32MP13xx_HAL_Driver/Src/stm32mp13xx_hal_i2c.o
 .text.I2C_Disable_IRQ
                0x00000000      0x134 build/obj/Drivers/STM32MP13xx_HAL_Driver/Src/stm32mp13xx_hal_i2c.o
 .text.I2C_ConvertOtherXferOptions
                0x00000000       0x5c build/obj/Drivers/STM32MP13xx_HAL_Driver/Src/stm32mp13xx_hal_i2c.o
 .text          0x00000000        0x0 build/obj/Drivers/STM32MP13xx_HAL_Driver/Src/stm32mp13xx_hal_rcc.o
 .data          0x00000000        0x0 build/obj/Drivers/STM32MP13xx_HAL_Driver/Src/stm32mp13xx_hal_rcc.o
 .bss           0x00000000        0x0 build/obj/Drivers/STM32MP13xx_HAL_Driver/Src/stm32mp13xx_hal_rcc.o
 .text.HAL_RCC_MCOConfig
                0x00000000       0xa8 build/obj/Drivers/STM32MP13xx_HAL_Driver/Src/stm32mp13xx_hal_rcc.o
 .text.HAL_RCC_EnableHSECSS
                0x00000000       0x2c build/obj/Drivers/STM32MP13xx_HAL_Driver/Src/stm32mp13xx_hal_rcc.o
 .text.HAL_RCC_GetOscConfig
                0x00000000      0x83c build/obj/Drivers/STM32MP13xx_HAL_Driver/Src/stm32mp13xx_hal_rcc.o
 .text.HAL_RCC_GetClockConfig
                0x00000000      0x120 build/obj/Drivers/STM32MP13xx_HAL_Driver/Src/stm32mp13xx_hal_rcc.o
 .text.HAL_RCC_GetPCLK3Freq
                0x00000000       0x4c build/obj/Drivers/STM32MP13xx_HAL_Driver/Src/stm32mp13xx_hal_rcc.o
 .text.HAL_RCC_GetPCLK4Freq
                0x00000000       0x4c build/obj/Drivers/STM32MP13xx_HAL_Driver/Src/stm32mp13xx_hal_rcc.o
 .text.HAL_RCC_GetHCLK5Freq
                0x00000000       0x18 build/obj/Drivers/STM32MP13xx_HAL_Driver/Src/stm32mp13xx_hal_rcc.o
 .text.HAL_RCC_GetHCLK6Freq
                0x00000000       0x18 build/obj/Drivers/STM32MP13xx_HAL_Driver/Src/stm32mp13xx_hal_rcc.o
 .text.HAL_RCC_GetHCLK1Freq
                0x00000000       0x18 build/obj/Drivers/STM32MP13xx_HAL_Driver/Src/stm32mp13xx_hal_rcc.o
 .text.HAL_RCC_GetHCLK2Freq
                0x00000000       0x18 build/obj/Drivers/STM32MP13xx_HAL_Driver/Src/stm32mp13xx_hal_rcc.o
 .text.HAL_RCC_GetHCLK3Freq
                0x00000000       0x18 build/obj/Drivers/STM32MP13xx_HAL_Driver/Src/stm32mp13xx_hal_rcc.o
 .text.HAL_RCC_GetHCLK4Freq
                0x00000000       0x18 build/obj/Drivers/STM32MP13xx_HAL_Driver/Src/stm32mp13xx_hal_rcc.o
 .text.HAL_RCC_GetMLHCLKFreq
                0x00000000       0x18 build/obj/Drivers/STM32MP13xx_HAL_Driver/Src/stm32mp13xx_hal_rcc.o
 .text.HAL_RCC_GetFCLKFreq
                0x00000000       0x18 build/obj/Drivers/STM32MP13xx_HAL_Driver/Src/stm32mp13xx_hal_rcc.o
 .text.RCC_GetCKPERFreq
                0x00000000       0x8c build/obj/Drivers/STM32MP13xx_HAL_Driver/Src/stm32mp13xx_hal_rcc.o
 .text.HAL_RCC_IRQHandler
                0x00000000       0x88 build/obj/Drivers/STM32MP13xx_HAL_Driver/Src/stm32mp13xx_hal_rcc.o
 .text.HAL_RCC_Callback
                0x00000000       0x20 build/obj/Drivers/STM32MP13xx_HAL_Driver/Src/stm32mp13xx_hal_rcc.o
 .text.HAL_RCC_WAKEUP_IRQHandler
                0x00000000       0x48 build/obj/Drivers/STM32MP13xx_HAL_Driver/Src/stm32mp13xx_hal_rcc.o
 .text.HAL_RCC_WAKEUP_Callback
                0x00000000       0x18 build/obj/Drivers/STM32MP13xx_HAL_Driver/Src/stm32mp13xx_hal_rcc.o
 .text          0x00000000        0x0 build/obj/Drivers/STM32MP13xx_HAL_Driver/Src/stm32mp13xx_hal_rcc_ex.o
 .data          0x00000000        0x0 build/obj/Drivers/STM32MP13xx_HAL_Driver/Src/stm32mp13xx_hal_rcc_ex.o
 .bss           0x00000000        0x0 build/obj/Drivers/STM32MP13xx_HAL_Driver/Src/stm32mp13xx_hal_rcc_ex.o
 .text.HAL_RCCEx_GetPeriphCLKConfig
                0x00000000      0x364 build/obj/Drivers/STM32MP13xx_HAL_Driver/Src/stm32mp13xx_hal_rcc_ex.o
 .text.HAL_RCCEx_EnableLSECSS
                0x00000000       0x2c build/obj/Drivers/STM32MP13xx_HAL_Driver/Src/stm32mp13xx_hal_rcc_ex.o
 .text.HAL_RCCEx_DisableLSECSS
                0x00000000       0x2c build/obj/Drivers/STM32MP13xx_HAL_Driver/Src/stm32mp13xx_hal_rcc_ex.o
 .text.HAL_RCCEx_GetPeriphCLKFreq
                0x00000000     0x2104 build/obj/Drivers/STM32MP13xx_HAL_Driver/Src/stm32mp13xx_hal_rcc_ex.o
 .text          0x00000000        0x0 build/obj/Drivers/STM32MP13xx_HAL_Driver/Src/stm32mp13xx_hal_uart.o
 .data          0x00000000        0x0 build/obj/Drivers/STM32MP13xx_HAL_Driver/Src/stm32mp13xx_hal_uart.o
 .bss           0x00000000        0x0 build/obj/Drivers/STM32MP13xx_HAL_Driver/Src/stm32mp13xx_hal_uart.o
 .text.HAL_HalfDuplex_Init
                0x00000000      0x12c build/obj/Drivers/STM32MP13xx_HAL_Driver/Src/stm32mp13xx_hal_uart.o
 .text.HAL_LIN_Init
                0x00000000      0x184 build/obj/Drivers/STM32MP13xx_HAL_Driver/Src/stm32mp13xx_hal_uart.o
 .text.HAL_MultiProcessor_Init
                0x00000000      0x174 build/obj/Drivers/STM32MP13xx_HAL_Driver/Src/stm32mp13xx_hal_uart.o
 .text.HAL_UART_DeInit
                0x00000000       0xdc build/obj/Drivers/STM32MP13xx_HAL_Driver/Src/stm32mp13xx_hal_uart.o
 .text.HAL_UART_MspInit
                0x00000000       0x20 build/obj/Drivers/STM32MP13xx_HAL_Driver/Src/stm32mp13xx_hal_uart.o
 .text.HAL_UART_MspDeInit
                0x00000000       0x20 build/obj/Drivers/STM32MP13xx_HAL_Driver/Src/stm32mp13xx_hal_uart.o
 .text.HAL_UART_Transmit_IT
                0x00000000      0x1b8 build/obj/Drivers/STM32MP13xx_HAL_Driver/Src/stm32mp13xx_hal_uart.o
 .text.HAL_UART_Receive_IT
                0x00000000       0xec build/obj/Drivers/STM32MP13xx_HAL_Driver/Src/stm32mp13xx_hal_uart.o
 .text.HAL_UART_Transmit_DMA
                0x00000000      0x180 build/obj/Drivers/STM32MP13xx_HAL_Driver/Src/stm32mp13xx_hal_uart.o
 .text.HAL_UART_Receive_DMA
                0x00000000       0xb8 build/obj/Drivers/STM32MP13xx_HAL_Driver/Src/stm32mp13xx_hal_uart.o
 .text.HAL_UART_DMAPause
                0x00000000       0xf4 build/obj/Drivers/STM32MP13xx_HAL_Driver/Src/stm32mp13xx_hal_uart.o
 .text.HAL_UART_DMAResume
                0x00000000       0xd4 build/obj/Drivers/STM32MP13xx_HAL_Driver/Src/stm32mp13xx_hal_uart.o
 .text.HAL_UART_DMAStop
                0x00000000      0x180 build/obj/Drivers/STM32MP13xx_HAL_Driver/Src/stm32mp13xx_hal_uart.o
 .text.HAL_UART_Abort
                0x00000000      0x230 build/obj/Drivers/STM32MP13xx_HAL_Driver/Src/stm32mp13xx_hal_uart.o
 .text.HAL_UART_AbortTransmit
                0x00000000      0x120 build/obj/Drivers/STM32MP13xx_HAL_Driver/Src/stm32mp13xx_hal_uart.o
 .text.HAL_UART_AbortReceive
                0x00000000      0x158 build/obj/Drivers/STM32MP13xx_HAL_Driver/Src/stm32mp13xx_hal_uart.o
 .text.HAL_UART_Abort_IT
                0x00000000      0x2c4 build/obj/Drivers/STM32MP13xx_HAL_Driver/Src/stm32mp13xx_hal_uart.o
 .text.HAL_UART_AbortTransmit_IT
                0x00000000      0x158 build/obj/Drivers/STM32MP13xx_HAL_Driver/Src/stm32mp13xx_hal_uart.o
 .text.HAL_UART_AbortReceive_IT
                0x00000000      0x1ac build/obj/Drivers/STM32MP13xx_HAL_Driver/Src/stm32mp13xx_hal_uart.o
 .text.HAL_UART_IRQHandler
                0x00000000      0x704 build/obj/Drivers/STM32MP13xx_HAL_Driver/Src/stm32mp13xx_hal_uart.o
 .text.HAL_UART_TxCpltCallback
                0x00000000       0x20 build/obj/Drivers/STM32MP13xx_HAL_Driver/Src/stm32mp13xx_hal_uart.o
 .text.HAL_UART_TxHalfCpltCallback
                0x00000000       0x20 build/obj/Drivers/STM32MP13xx_HAL_Driver/Src/stm32mp13xx_hal_uart.o
 .text.HAL_UART_RxCpltCallback
                0x00000000       0x20 build/obj/Drivers/STM32MP13xx_HAL_Driver/Src/stm32mp13xx_hal_uart.o
 .text.HAL_UART_RxHalfCpltCallback
                0x00000000       0x20 build/obj/Drivers/STM32MP13xx_HAL_Driver/Src/stm32mp13xx_hal_uart.o
 .text.HAL_UART_ErrorCallback
                0x00000000       0x20 build/obj/Drivers/STM32MP13xx_HAL_Driver/Src/stm32mp13xx_hal_uart.o
 .text.HAL_UART_AbortCpltCallback
                0x00000000       0x20 build/obj/Drivers/STM32MP13xx_HAL_Driver/Src/stm32mp13xx_hal_uart.o
 .text.HAL_UART_AbortTransmitCpltCallback
                0x00000000       0x20 build/obj/Drivers/STM32MP13xx_HAL_Driver/Src/stm32mp13xx_hal_uart.o
 .text.HAL_UART_AbortReceiveCpltCallback
                0x00000000       0x20 build/obj/Drivers/STM32MP13xx_HAL_Driver/Src/stm32mp13xx_hal_uart.o
 .text.HAL_UARTEx_RxEventCallback
                0x00000000       0x28 build/obj/Drivers/STM32MP13xx_HAL_Driver/Src/stm32mp13xx_hal_uart.o
 .text.HAL_UART_ReceiverTimeout_Config
                0x00000000       0x48 build/obj/Drivers/STM32MP13xx_HAL_Driver/Src/stm32mp13xx_hal_uart.o
 .text.HAL_UART_EnableReceiverTimeout
                0x00000000       0xa0 build/obj/Drivers/STM32MP13xx_HAL_Driver/Src/stm32mp13xx_hal_uart.o
 .text.HAL_UART_DisableReceiverTimeout
                0x00000000       0xa0 build/obj/Drivers/STM32MP13xx_HAL_Driver/Src/stm32mp13xx_hal_uart.o
 .text.HAL_MultiProcessor_EnableMuteMode
                0x00000000       0x80 build/obj/Drivers/STM32MP13xx_HAL_Driver/Src/stm32mp13xx_hal_uart.o
 .text.HAL_MultiProcessor_DisableMuteMode
                0x00000000       0x80 build/obj/Drivers/STM32MP13xx_HAL_Driver/Src/stm32mp13xx_hal_uart.o
 .text.HAL_MultiProcessor_EnterMuteMode
                0x00000000       0x3c build/obj/Drivers/STM32MP13xx_HAL_Driver/Src/stm32mp13xx_hal_uart.o
 .text.HAL_HalfDuplex_EnableTransmitter
                0x00000000       0xa4 build/obj/Drivers/STM32MP13xx_HAL_Driver/Src/stm32mp13xx_hal_uart.o
 .text.HAL_HalfDuplex_EnableReceiver
                0x00000000       0xa4 build/obj/Drivers/STM32MP13xx_HAL_Driver/Src/stm32mp13xx_hal_uart.o
 .text.HAL_LIN_SendBreak
                0x00000000       0x88 build/obj/Drivers/STM32MP13xx_HAL_Driver/Src/stm32mp13xx_hal_uart.o
 .text.HAL_UART_GetState
                0x00000000       0x44 build/obj/Drivers/STM32MP13xx_HAL_Driver/Src/stm32mp13xx_hal_uart.o
 .text.HAL_UART_GetError
                0x00000000       0x28 build/obj/Drivers/STM32MP13xx_HAL_Driver/Src/stm32mp13xx_hal_uart.o
 .text.UART_Start_Receive_IT
                0x00000000      0x2a4 build/obj/Drivers/STM32MP13xx_HAL_Driver/Src/stm32mp13xx_hal_uart.o
 .text.UART_Start_Receive_DMA
                0x00000000      0x174 build/obj/Drivers/STM32MP13xx_HAL_Driver/Src/stm32mp13xx_hal_uart.o
 .text.UART_EndTxTransfer
                0x00000000       0x64 build/obj/Drivers/STM32MP13xx_HAL_Driver/Src/stm32mp13xx_hal_uart.o
 .text.UART_DMATransmitCplt
                0x00000000       0x6c build/obj/Drivers/STM32MP13xx_HAL_Driver/Src/stm32mp13xx_hal_uart.o
 .text.UART_DMATxHalfCplt
                0x00000000       0x30 build/obj/Drivers/STM32MP13xx_HAL_Driver/Src/stm32mp13xx_hal_uart.o
 .text.UART_DMAReceiveCplt
                0x00000000       0xf0 build/obj/Drivers/STM32MP13xx_HAL_Driver/Src/stm32mp13xx_hal_uart.o
 .text.UART_DMARxHalfCplt
                0x00000000       0x6c build/obj/Drivers/STM32MP13xx_HAL_Driver/Src/stm32mp13xx_hal_uart.o
 .text.UART_DMAError
                0x00000000       0xcc build/obj/Drivers/STM32MP13xx_HAL_Driver/Src/stm32mp13xx_hal_uart.o
 .text.UART_DMAAbortOnError
                0x00000000       0x48 build/obj/Drivers/STM32MP13xx_HAL_Driver/Src/stm32mp13xx_hal_uart.o
 .text.UART_DMATxAbortCallback
                0x00000000       0xec build/obj/Drivers/STM32MP13xx_HAL_Driver/Src/stm32mp13xx_hal_uart.o
 .text.UART_DMARxAbortCallback
                0x00000000       0xdc build/obj/Drivers/STM32MP13xx_HAL_Driver/Src/stm32mp13xx_hal_uart.o
 .text.UART_DMATxOnlyAbortCallback
                0x00000000       0x74 build/obj/Drivers/STM32MP13xx_HAL_Driver/Src/stm32mp13xx_hal_uart.o
 .text.UART_DMARxOnlyAbortCallback
                0x00000000       0x80 build/obj/Drivers/STM32MP13xx_HAL_Driver/Src/stm32mp13xx_hal_uart.o
 .text.UART_TxISR_8BIT
                0x00000000       0xc8 build/obj/Drivers/STM32MP13xx_HAL_Driver/Src/stm32mp13xx_hal_uart.o
 .text.UART_TxISR_16BIT
                0x00000000       0xd8 build/obj/Drivers/STM32MP13xx_HAL_Driver/Src/stm32mp13xx_hal_uart.o
 .text.UART_TxISR_8BIT_FIFOEN
                0x00000000      0x10c build/obj/Drivers/STM32MP13xx_HAL_Driver/Src/stm32mp13xx_hal_uart.o
 .text.UART_TxISR_16BIT_FIFOEN
                0x00000000      0x11c build/obj/Drivers/STM32MP13xx_HAL_Driver/Src/stm32mp13xx_hal_uart.o
 .text.UART_EndTransmit_IT
                0x00000000       0x58 build/obj/Drivers/STM32MP13xx_HAL_Driver/Src/stm32mp13xx_hal_uart.o
 .text.UART_RxISR_8BIT
                0x00000000      0x1e0 build/obj/Drivers/STM32MP13xx_HAL_Driver/Src/stm32mp13xx_hal_uart.o
 .text.UART_RxISR_16BIT
                0x00000000      0x1e0 build/obj/Drivers/STM32MP13xx_HAL_Driver/Src/stm32mp13xx_hal_uart.o
 .text.UART_RxISR_8BIT_FIFOEN
                0x00000000      0x3c0 build/obj/Drivers/STM32MP13xx_HAL_Driver/Src/stm32mp13xx_hal_uart.o
 .text.UART_RxISR_16BIT_FIFOEN
                0x00000000      0x3c0 build/obj/Drivers/STM32MP13xx_HAL_Driver/Src/stm32mp13xx_hal_uart.o
 .text          0x00000000        0x0 build/obj/Drivers/STM32MP13xx_HAL_Driver/Src/stm32mp13xx_hal_uart_ex.o
 .data          0x00000000        0x0 build/obj/Drivers/STM32MP13xx_HAL_Driver/Src/stm32mp13xx_hal_uart_ex.o
 .bss           0x00000000        0x0 build/obj/Drivers/STM32MP13xx_HAL_Driver/Src/stm32mp13xx_hal_uart_ex.o
 .text.HAL_RS485Ex_Init
                0x00000000      0x16c build/obj/Drivers/STM32MP13xx_HAL_Driver/Src/stm32mp13xx_hal_uart_ex.o
 .text.HAL_UARTEx_WakeupCallback
                0x00000000       0x20 build/obj/Drivers/STM32MP13xx_HAL_Driver/Src/stm32mp13xx_hal_uart_ex.o
 .text.HAL_UARTEx_RxFifoFullCallback
                0x00000000       0x20 build/obj/Drivers/STM32MP13xx_HAL_Driver/Src/stm32mp13xx_hal_uart_ex.o
 .text.HAL_UARTEx_TxFifoEmptyCallback
                0x00000000       0x20 build/obj/Drivers/STM32MP13xx_HAL_Driver/Src/stm32mp13xx_hal_uart_ex.o
 .text.HAL_MultiProcessorEx_AddressLength_Set
                0x00000000       0xa8 build/obj/Drivers/STM32MP13xx_HAL_Driver/Src/stm32mp13xx_hal_uart_ex.o
 .text.HAL_UARTEx_StopModeWakeUpSourceConfig
                0x00000000      0x12c build/obj/Drivers/STM32MP13xx_HAL_Driver/Src/stm32mp13xx_hal_uart_ex.o
 .text.HAL_UARTEx_EnableStopMode
                0x00000000       0x70 build/obj/Drivers/STM32MP13xx_HAL_Driver/Src/stm32mp13xx_hal_uart_ex.o
 .text.HAL_UARTEx_DisableStopMode
                0x00000000       0x70 build/obj/Drivers/STM32MP13xx_HAL_Driver/Src/stm32mp13xx_hal_uart_ex.o
 .text.HAL_UARTEx_EnableFifoMode
                0x00000000       0xc4 build/obj/Drivers/STM32MP13xx_HAL_Driver/Src/stm32mp13xx_hal_uart_ex.o
 .text.HAL_UARTEx_ReceiveToIdle
                0x00000000      0x388 build/obj/Drivers/STM32MP13xx_HAL_Driver/Src/stm32mp13xx_hal_uart_ex.o
 .text.HAL_UARTEx_ReceiveToIdle_IT
                0x00000000       0xe0 build/obj/Drivers/STM32MP13xx_HAL_Driver/Src/stm32mp13xx_hal_uart_ex.o
 .text.HAL_UARTEx_ReceiveToIdle_DMA
                0x00000000       0xec build/obj/Drivers/STM32MP13xx_HAL_Driver/Src/stm32mp13xx_hal_uart_ex.o
 .text.HAL_UARTEx_GetRxEventType
                0x00000000       0x28 build/obj/Drivers/STM32MP13xx_HAL_Driver/Src/stm32mp13xx_hal_uart_ex.o
 .text.UARTEx_Wakeup_AddressConfig
                0x00000000       0x78 build/obj/Drivers/STM32MP13xx_HAL_Driver/Src/stm32mp13xx_hal_uart_ex.o
 .text          0x00000000        0x0 build/obj/Drivers/STM32MP13xx_DISCO/stm32mp13xx_disco.o
 .data          0x00000000        0x0 build/obj/Drivers/STM32MP13xx_DISCO/stm32mp13xx_disco.o
 .bss           0x00000000        0x0 build/obj/Drivers/STM32MP13xx_DISCO/stm32mp13xx_disco.o
 .data.BUTTON_PORT
                0x00000000       0x10 build/obj/Drivers/STM32MP13xx_DISCO/stm32mp13xx_disco.o
 .rodata.BUTTON_PIN
                0x00000000        0x8 build/obj/Drivers/STM32MP13xx_DISCO/stm32mp13xx_disco.o
 .rodata.BUTTON_IRQn
                0x00000000        0x8 build/obj/Drivers/STM32MP13xx_DISCO/stm32mp13xx_disco.o
 .bss.hExtiButtonHandle
                0x00000000       0x30 build/obj/Drivers/STM32MP13xx_DISCO/stm32mp13xx_disco.o
 .text.BSP_GetVersion
                0x00000000       0x20 build/obj/Drivers/STM32MP13xx_DISCO/stm32mp13xx_disco.o
 .text.BSP_LED_DeInit
                0x00000000       0x74 build/obj/Drivers/STM32MP13xx_DISCO/stm32mp13xx_disco.o
 .text.BSP_LED_On
                0x00000000       0x78 build/obj/Drivers/STM32MP13xx_DISCO/stm32mp13xx_disco.o
 .text.BSP_LED_GetState
                0x00000000       0x6c build/obj/Drivers/STM32MP13xx_DISCO/stm32mp13xx_disco.o
 .text.BSP_PB_Init
                0x00000000      0x234 build/obj/Drivers/STM32MP13xx_DISCO/stm32mp13xx_disco.o
 .text.BSP_PB_DeInit
                0x00000000       0xe4 build/obj/Drivers/STM32MP13xx_DISCO/stm32mp13xx_disco.o
 .text.BSP_PB_GetState
                0x00000000       0x54 build/obj/Drivers/STM32MP13xx_DISCO/stm32mp13xx_disco.o
 .text.BSP_PB_WAKEUP_EXTI_LINE_0_IRQHandler
                0x00000000       0x1c build/obj/Drivers/STM32MP13xx_DISCO/stm32mp13xx_disco.o
 .text.BSP_PB_USER_EXTI_LINE_14_IRQHandler
                0x00000000       0x1c build/obj/Drivers/STM32MP13xx_DISCO/stm32mp13xx_disco.o
 .text.BSP_PB_USER2_EXTI_LINE_13_IRQHandler
                0x00000000       0x1c build/obj/Drivers/STM32MP13xx_DISCO/stm32mp13xx_disco.o
 .text.BSP_PB_TAMPER_EXTI_LINE_6_IRQHandler
                0x00000000       0x1c build/obj/Drivers/STM32MP13xx_DISCO/stm32mp13xx_disco.o
 .text.BUTTON_WAKEUP_EXTI_Callback
                0x00000000       0x18 build/obj/Drivers/STM32MP13xx_DISCO/stm32mp13xx_disco.o
 .text.BUTTON_USER_EXTI_Callback
                0x00000000       0x18 build/obj/Drivers/STM32MP13xx_DISCO/stm32mp13xx_disco.o
 .text.BUTTON_USER2_EXTI_Callback
                0x00000000       0x18 build/obj/Drivers/STM32MP13xx_DISCO/stm32mp13xx_disco.o
 .text.BUTTON_TAMPER_EXTI_Callback
                0x00000000       0x18 build/obj/Drivers/STM32MP13xx_DISCO/stm32mp13xx_disco.o
 .text.BSP_PB_Callback
                0x00000000       0x24 build/obj/Drivers/STM32MP13xx_DISCO/stm32mp13xx_disco.o
 .text.BSP_PB_IRQHandler
                0x00000000       0x40 build/obj/Drivers/STM32MP13xx_DISCO/stm32mp13xx_disco.o
 .data.BUTTON_EXTI_LINE.2
                0x00000000       0x10 build/obj/Drivers/STM32MP13xx_DISCO/stm32mp13xx_disco.o
 .data.ButtonCallback.1
                0x00000000       0x10 build/obj/Drivers/STM32MP13xx_DISCO/stm32mp13xx_disco.o
 .data.BSP_BUTTON_IT_PRIORITY.0
                0x00000000       0x10 build/obj/Drivers/STM32MP13xx_DISCO/stm32mp13xx_disco.o
 .text          0x00000000        0x0 build/obj/Drivers/STM32MP13xx_DISCO/stm32mp13xx_disco_bus.o
 .data          0x00000000        0x0 build/obj/Drivers/STM32MP13xx_DISCO/stm32mp13xx_disco_bus.o
 .bss           0x00000000        0x0 build/obj/Drivers/STM32MP13xx_DISCO/stm32mp13xx_disco_bus.o
 .bss.hbus_i2c5
                0x00000000       0x54 build/obj/Drivers/STM32MP13xx_DISCO/stm32mp13xx_disco_bus.o
 .bss.hbus_i2c1
                0x00000000       0x54 build/obj/Drivers/STM32MP13xx_DISCO/stm32mp13xx_disco_bus.o
 .text.BSP_I2C5_Init
                0x00000000       0x6c build/obj/Drivers/STM32MP13xx_DISCO/stm32mp13xx_disco_bus.o
 .text.BSP_I2C5_DeInit
                0x00000000       0x40 build/obj/Drivers/STM32MP13xx_DISCO/stm32mp13xx_disco_bus.o
 .text.MX_I2C5_Init
                0x00000000       0x8c build/obj/Drivers/STM32MP13xx_DISCO/stm32mp13xx_disco_bus.o
 .text.BSP_I2C5_WriteReg
                0x00000000       0x9c build/obj/Drivers/STM32MP13xx_DISCO/stm32mp13xx_disco_bus.o
 .text.BSP_I2C5_ReadReg
                0x00000000       0x9c build/obj/Drivers/STM32MP13xx_DISCO/stm32mp13xx_disco_bus.o
 .text.BSP_I2C5_WriteReg16
                0x00000000       0x9c build/obj/Drivers/STM32MP13xx_DISCO/stm32mp13xx_disco_bus.o
 .text.BSP_I2C5_ReadReg16
                0x00000000       0x9c build/obj/Drivers/STM32MP13xx_DISCO/stm32mp13xx_disco_bus.o
 .text.BSP_I2C5_IsReady
                0x00000000       0x60 build/obj/Drivers/STM32MP13xx_DISCO/stm32mp13xx_disco_bus.o
 .text.BSP_I2C4_DeInit
                0x00000000       0x40 build/obj/Drivers/STM32MP13xx_DISCO/stm32mp13xx_disco_bus.o
 .text.BSP_I2C4_WriteReg16
                0x00000000       0x9c build/obj/Drivers/STM32MP13xx_DISCO/stm32mp13xx_disco_bus.o
 .text.BSP_I2C4_ReadReg16
                0x00000000       0x9c build/obj/Drivers/STM32MP13xx_DISCO/stm32mp13xx_disco_bus.o
 .text.BSP_I2C1_Init
                0x00000000       0x6c build/obj/Drivers/STM32MP13xx_DISCO/stm32mp13xx_disco_bus.o
 .text.BSP_I2C1_DeInit
                0x00000000       0x40 build/obj/Drivers/STM32MP13xx_DISCO/stm32mp13xx_disco_bus.o
 .text.MX_I2C1_Init
                0x00000000       0x8c build/obj/Drivers/STM32MP13xx_DISCO/stm32mp13xx_disco_bus.o
 .text.BSP_I2C1_WriteReg
                0x00000000       0x9c build/obj/Drivers/STM32MP13xx_DISCO/stm32mp13xx_disco_bus.o
 .text.BSP_I2C1_ReadReg
                0x00000000       0x9c build/obj/Drivers/STM32MP13xx_DISCO/stm32mp13xx_disco_bus.o
 .text.BSP_I2C1_WriteReg16
                0x00000000       0x9c build/obj/Drivers/STM32MP13xx_DISCO/stm32mp13xx_disco_bus.o
 .text.BSP_I2C1_ReadReg16
                0x00000000       0x9c build/obj/Drivers/STM32MP13xx_DISCO/stm32mp13xx_disco_bus.o
 .text.BSP_I2C1_IsReady
                0x00000000       0x60 build/obj/Drivers/STM32MP13xx_DISCO/stm32mp13xx_disco_bus.o
 .text.BSP_GetTick
                0x00000000       0x18 build/obj/Drivers/STM32MP13xx_DISCO/stm32mp13xx_disco_bus.o
 .text.I2C5_MspInit
                0x00000000       0xe0 build/obj/Drivers/STM32MP13xx_DISCO/stm32mp13xx_disco_bus.o
 .text.I2C5_MspDeInit
                0x00000000       0x88 build/obj/Drivers/STM32MP13xx_DISCO/stm32mp13xx_disco_bus.o
 .text.I2C5_WriteReg
                0x00000000       0x80 build/obj/Drivers/STM32MP13xx_DISCO/stm32mp13xx_disco_bus.o
 .text.I2C5_ReadReg
                0x00000000       0x80 build/obj/Drivers/STM32MP13xx_DISCO/stm32mp13xx_disco_bus.o
 .text.I2C4_MspDeInit
                0x00000000       0x88 build/obj/Drivers/STM32MP13xx_DISCO/stm32mp13xx_disco_bus.o
 .text.I2C1_MspInit
                0x00000000       0xe0 build/obj/Drivers/STM32MP13xx_DISCO/stm32mp13xx_disco_bus.o
 .text.I2C1_MspDeInit
                0x00000000       0x88 build/obj/Drivers/STM32MP13xx_DISCO/stm32mp13xx_disco_bus.o
 .text.I2C1_WriteReg
                0x00000000       0x80 build/obj/Drivers/STM32MP13xx_DISCO/stm32mp13xx_disco_bus.o
 .text.I2C1_ReadReg
                0x00000000       0x80 build/obj/Drivers/STM32MP13xx_DISCO/stm32mp13xx_disco_bus.o
 .text          0x00000000        0x0 build/obj/Drivers/STM32MP13xx_DISCO/stm32mp13xx_disco_stpmic1.o
 .data          0x00000000        0x0 build/obj/Drivers/STM32MP13xx_DISCO/stm32mp13xx_disco_stpmic1.o
 .bss           0x00000000        0x0 build/obj/Drivers/STM32MP13xx_DISCO/stm32mp13xx_disco_stpmic1.o
 .text.STPMU1_Disable_Interrupt
                0x00000000       0x8c build/obj/Drivers/STM32MP13xx_DISCO/stm32mp13xx_disco_stpmic1.o
 .text.STPMU1_IrqHandler
                0x00000000      0x110 build/obj/Drivers/STM32MP13xx_DISCO/stm32mp13xx_disco_stpmic1.o
 .text.STPMU1_Sw_Reset
                0x00000000       0x20 build/obj/Drivers/STM32MP13xx_DISCO/stm32mp13xx_disco_stpmic1.o
 .text.STPMU1_Is_Regulator_Enabled
                0x00000000       0x54 build/obj/Drivers/STM32MP13xx_DISCO/stm32mp13xx_disco_stpmic1.o
 .text.BSP_PMIC_MspDeInit
                0x00000000       0x58 build/obj/Drivers/STM32MP13xx_DISCO/stm32mp13xx_disco_stpmic1.o
 .text.BSP_PMIC_DeInit
                0x00000000       0x48 build/obj/Drivers/STM32MP13xx_DISCO/stm32mp13xx_disco_stpmic1.o
 .text.BSP_PMIC_PrepareLpStop
                0x00000000      0x138 build/obj/Drivers/STM32MP13xx_DISCO/stm32mp13xx_disco_stpmic1.o
 .text.BSP_PMIC_PrepareLpLvStop
                0x00000000       0x4c build/obj/Drivers/STM32MP13xx_DISCO/stm32mp13xx_disco_stpmic1.o
 .text.BSP_PMIC_PrepareLpLvStop2
                0x00000000       0x4c build/obj/Drivers/STM32MP13xx_DISCO/stm32mp13xx_disco_stpmic1.o
 .text.BSP_PMIC_PrepareStandbySelfRefresh
                0x00000000       0x60 build/obj/Drivers/STM32MP13xx_DISCO/stm32mp13xx_disco_stpmic1.o
 .text.BSP_PMIC_PrepareStandby
                0x00000000       0x30 build/obj/Drivers/STM32MP13xx_DISCO/stm32mp13xx_disco_stpmic1.o
 .text.BSP_PMIC_SwitchOff
                0x00000000       0x30 build/obj/Drivers/STM32MP13xx_DISCO/stm32mp13xx_disco_stpmic1.o
 .text.BSP_PMIC_INTn_Callback
                0x00000000       0x24 build/obj/Drivers/STM32MP13xx_DISCO/stm32mp13xx_disco_stpmic1.o
 .text.STPMU1_INTn_Callback
                0x00000000       0x2c build/obj/Drivers/STM32MP13xx_DISCO/stm32mp13xx_disco_stpmic1.o
 .text.EXTI8_IRQHandler
                0x00000000       0x1c build/obj/Drivers/STM32MP13xx_DISCO/stm32mp13xx_disco_stpmic1.o
 .data          0x00000000        0x0 c:/program files (x86)/arm gnu toolchain arm-none-eabi/12.3 rel1/bin/../lib/gcc/arm-none-eabi/12.3.1/thumb/v7ve+simd/hard\libgcc.a(_aeabi_uldivmod.o)
 .bss           0x00000000        0x0 c:/program files (x86)/arm gnu toolchain arm-none-eabi/12.3 rel1/bin/../lib/gcc/arm-none-eabi/12.3.1/thumb/v7ve+simd/hard\libgcc.a(_aeabi_uldivmod.o)
 .text          0x00000000        0x0 c:/program files (x86)/arm gnu toolchain arm-none-eabi/12.3 rel1/bin/../lib/gcc/arm-none-eabi/12.3.1/thumb/v7ve+simd/hard\libgcc.a(_udivmoddi4.o)
 .data          0x00000000        0x0 c:/program files (x86)/arm gnu toolchain arm-none-eabi/12.3 rel1/bin/../lib/gcc/arm-none-eabi/12.3.1/thumb/v7ve+simd/hard\libgcc.a(_udivmoddi4.o)
 .bss           0x00000000        0x0 c:/program files (x86)/arm gnu toolchain arm-none-eabi/12.3 rel1/bin/../lib/gcc/arm-none-eabi/12.3.1/thumb/v7ve+simd/hard\libgcc.a(_udivmoddi4.o)
 .ARM.extab.text.__udivmoddi4
                0x00000000        0x0 c:/program files (x86)/arm gnu toolchain arm-none-eabi/12.3 rel1/bin/../lib/gcc/arm-none-eabi/12.3.1/thumb/v7ve+simd/hard\libgcc.a(_udivmoddi4.o)
 .data          0x00000000        0x0 c:/program files (x86)/arm gnu toolchain arm-none-eabi/12.3 rel1/bin/../lib/gcc/arm-none-eabi/12.3.1/thumb/v7ve+simd/hard\libgcc.a(_dvmd_tls.o)
 .bss           0x00000000        0x0 c:/program files (x86)/arm gnu toolchain arm-none-eabi/12.3 rel1/bin/../lib/gcc/arm-none-eabi/12.3.1/thumb/v7ve+simd/hard\libgcc.a(_dvmd_tls.o)
 .text          0x00000000        0x0 c:/program files (x86)/arm gnu toolchain arm-none-eabi/12.3 rel1/bin/../lib/gcc/arm-none-eabi/12.3.1/thumb/v7ve+simd/hard\libc_nano.a(libc_a-printf.o)
 .data          0x00000000        0x0 c:/program files (x86)/arm gnu toolchain arm-none-eabi/12.3 rel1/bin/../lib/gcc/arm-none-eabi/12.3.1/thumb/v7ve+simd/hard\libc_nano.a(libc_a-printf.o)
 .bss           0x00000000        0x0 c:/program files (x86)/arm gnu toolchain arm-none-eabi/12.3 rel1/bin/../lib/gcc/arm-none-eabi/12.3.1/thumb/v7ve+simd/hard\libc_nano.a(libc_a-printf.o)
 .text._printf_r
                0x00000000       0x1c c:/program files (x86)/arm gnu toolchain arm-none-eabi/12.3 rel1/bin/../lib/gcc/arm-none-eabi/12.3.1/thumb/v7ve+simd/hard\libc_nano.a(libc_a-printf.o)
 .text          0x00000000        0x0 c:/program files (x86)/arm gnu toolchain arm-none-eabi/12.3 rel1/bin/../lib/gcc/arm-none-eabi/12.3.1/thumb/v7ve+simd/hard\libc_nano.a(libc_a-memset.o)
 .data          0x00000000        0x0 c:/program files (x86)/arm gnu toolchain arm-none-eabi/12.3 rel1/bin/../lib/gcc/arm-none-eabi/12.3.1/thumb/v7ve+simd/hard\libc_nano.a(libc_a-memset.o)
 .bss           0x00000000        0x0 c:/program files (x86)/arm gnu toolchain arm-none-eabi/12.3 rel1/bin/../lib/gcc/arm-none-eabi/12.3.1/thumb/v7ve+simd/hard\libc_nano.a(libc_a-memset.o)
 .text          0x00000000        0x0 c:/program files (x86)/arm gnu toolchain arm-none-eabi/12.3 rel1/bin/../lib/gcc/arm-none-eabi/12.3.1/thumb/v7ve+simd/hard\libc_nano.a(libc_a-impure.o)
 .data          0x00000000        0x0 c:/program files (x86)/arm gnu toolchain arm-none-eabi/12.3 rel1/bin/../lib/gcc/arm-none-eabi/12.3.1/thumb/v7ve+simd/hard\libc_nano.a(libc_a-impure.o)
 .bss           0x00000000        0x0 c:/program files (x86)/arm gnu toolchain arm-none-eabi/12.3 rel1/bin/../lib/gcc/arm-none-eabi/12.3.1/thumb/v7ve+simd/hard\libc_nano.a(libc_a-impure.o)
 .text          0x00000000        0x0 c:/program files (x86)/arm gnu toolchain arm-none-eabi/12.3 rel1/bin/../lib/gcc/arm-none-eabi/12.3.1/thumb/v7ve+simd/hard\libc_nano.a(libc_a-errno.o)
 .data          0x00000000        0x0 c:/program files (x86)/arm gnu toolchain arm-none-eabi/12.3 rel1/bin/../lib/gcc/arm-none-eabi/12.3.1/thumb/v7ve+simd/hard\libc_nano.a(libc_a-errno.o)
 .bss           0x00000000        0x0 c:/program files (x86)/arm gnu toolchain arm-none-eabi/12.3 rel1/bin/../lib/gcc/arm-none-eabi/12.3.1/thumb/v7ve+simd/hard\libc_nano.a(libc_a-errno.o)
 .text.__errno  0x00000000        0xc c:/program files (x86)/arm gnu toolchain arm-none-eabi/12.3 rel1/bin/../lib/gcc/arm-none-eabi/12.3.1/thumb/v7ve+simd/hard\libc_nano.a(libc_a-errno.o)
 .debug_frame   0x00000000       0x20 c:/program files (x86)/arm gnu toolchain arm-none-eabi/12.3 rel1/bin/../lib/gcc/arm-none-eabi/12.3.1/thumb/v7ve+simd/hard\libc_nano.a(libc_a-errno.o)
 .ARM.attributes
                0x00000000       0x3b c:/program files (x86)/arm gnu toolchain arm-none-eabi/12.3 rel1/bin/../lib/gcc/arm-none-eabi/12.3.1/thumb/v7ve+simd/hard\libc_nano.a(libc_a-errno.o)
 .text          0x00000000        0x0 c:/program files (x86)/arm gnu toolchain arm-none-eabi/12.3 rel1/bin/../lib/gcc/arm-none-eabi/12.3.1/thumb/v7ve+simd/hard\libc_nano.a(libc_a-init.o)
 .data          0x00000000        0x0 c:/program files (x86)/arm gnu toolchain arm-none-eabi/12.3 rel1/bin/../lib/gcc/arm-none-eabi/12.3.1/thumb/v7ve+simd/hard\libc_nano.a(libc_a-init.o)
 .bss           0x00000000        0x0 c:/program files (x86)/arm gnu toolchain arm-none-eabi/12.3 rel1/bin/../lib/gcc/arm-none-eabi/12.3.1/thumb/v7ve+simd/hard\libc_nano.a(libc_a-init.o)
 .text          0x00000000        0x0 c:/program files (x86)/arm gnu toolchain arm-none-eabi/12.3 rel1/bin/../lib/gcc/arm-none-eabi/12.3.1/thumb/v7ve+simd/hard\libc_nano.a(libc_a-nano-vfprintf.o)
 .data          0x00000000        0x0 c:/program files (x86)/arm gnu toolchain arm-none-eabi/12.3 rel1/bin/../lib/gcc/arm-none-eabi/12.3.1/thumb/v7ve+simd/hard\libc_nano.a(libc_a-nano-vfprintf.o)
 .bss           0x00000000        0x0 c:/program files (x86)/arm gnu toolchain arm-none-eabi/12.3 rel1/bin/../lib/gcc/arm-none-eabi/12.3.1/thumb/v7ve+simd/hard\libc_nano.a(libc_a-nano-vfprintf.o)
 .text.__sprint_r
                0x00000000       0x1a c:/program files (x86)/arm gnu toolchain arm-none-eabi/12.3 rel1/bin/../lib/gcc/arm-none-eabi/12.3.1/thumb/v7ve+simd/hard\libc_nano.a(libc_a-nano-vfprintf.o)
 .text.vfprintf
                0x00000000       0x14 c:/program files (x86)/arm gnu toolchain arm-none-eabi/12.3 rel1/bin/../lib/gcc/arm-none-eabi/12.3.1/thumb/v7ve+simd/hard\libc_nano.a(libc_a-nano-vfprintf.o)
 .text          0x00000000        0x0 c:/program files (x86)/arm gnu toolchain arm-none-eabi/12.3 rel1/bin/../lib/gcc/arm-none-eabi/12.3.1/thumb/v7ve+simd/hard\libc_nano.a(libc_a-nano-vfprintf_i.o)
 .data          0x00000000        0x0 c:/program files (x86)/arm gnu toolchain arm-none-eabi/12.3 rel1/bin/../lib/gcc/arm-none-eabi/12.3.1/thumb/v7ve+simd/hard\libc_nano.a(libc_a-nano-vfprintf_i.o)
 .bss           0x00000000        0x0 c:/program files (x86)/arm gnu toolchain arm-none-eabi/12.3 rel1/bin/../lib/gcc/arm-none-eabi/12.3.1/thumb/v7ve+simd/hard\libc_nano.a(libc_a-nano-vfprintf_i.o)
 .text          0x00000000        0x0 c:/program files (x86)/arm gnu toolchain arm-none-eabi/12.3 rel1/bin/../lib/gcc/arm-none-eabi/12.3.1/thumb/v7ve+simd/hard\libc_nano.a(libc_a-findfp.o)
 .data          0x00000000        0x0 c:/program files (x86)/arm gnu toolchain arm-none-eabi/12.3 rel1/bin/../lib/gcc/arm-none-eabi/12.3.1/thumb/v7ve+simd/hard\libc_nano.a(libc_a-findfp.o)
 .bss           0x00000000        0x0 c:/program files (x86)/arm gnu toolchain arm-none-eabi/12.3 rel1/bin/../lib/gcc/arm-none-eabi/12.3.1/thumb/v7ve+simd/hard\libc_nano.a(libc_a-findfp.o)
 .text.__fp_lock
                0x00000000       0x18 c:/program files (x86)/arm gnu toolchain arm-none-eabi/12.3 rel1/bin/../lib/gcc/arm-none-eabi/12.3.1/thumb/v7ve+simd/hard\libc_nano.a(libc_a-findfp.o)
 .text.__fp_unlock
                0x00000000       0x18 c:/program files (x86)/arm gnu toolchain arm-none-eabi/12.3 rel1/bin/../lib/gcc/arm-none-eabi/12.3.1/thumb/v7ve+simd/hard\libc_nano.a(libc_a-findfp.o)
 .text.__sfp    0x00000000       0xa4 c:/program files (x86)/arm gnu toolchain arm-none-eabi/12.3 rel1/bin/../lib/gcc/arm-none-eabi/12.3.1/thumb/v7ve+simd/hard\libc_nano.a(libc_a-findfp.o)
 .text.__fp_lock_all
                0x00000000       0x1c c:/program files (x86)/arm gnu toolchain arm-none-eabi/12.3 rel1/bin/../lib/gcc/arm-none-eabi/12.3.1/thumb/v7ve+simd/hard\libc_nano.a(libc_a-findfp.o)
 .text.__fp_unlock_all
                0x00000000       0x1c c:/program files (x86)/arm gnu toolchain arm-none-eabi/12.3 rel1/bin/../lib/gcc/arm-none-eabi/12.3.1/thumb/v7ve+simd/hard\libc_nano.a(libc_a-findfp.o)
 .text          0x00000000        0x0 c:/program files (x86)/arm gnu toolchain arm-none-eabi/12.3 rel1/bin/../lib/gcc/arm-none-eabi/12.3.1/thumb/v7ve+simd/hard\libc_nano.a(libc_a-fvwrite.o)
 .data          0x00000000        0x0 c:/program files (x86)/arm gnu toolchain arm-none-eabi/12.3 rel1/bin/../lib/gcc/arm-none-eabi/12.3.1/thumb/v7ve+simd/hard\libc_nano.a(libc_a-fvwrite.o)
 .bss           0x00000000        0x0 c:/program files (x86)/arm gnu toolchain arm-none-eabi/12.3 rel1/bin/../lib/gcc/arm-none-eabi/12.3.1/thumb/v7ve+simd/hard\libc_nano.a(libc_a-fvwrite.o)
 .text.__sfvwrite_r
                0x00000000      0x2a0 c:/program files (x86)/arm gnu toolchain arm-none-eabi/12.3 rel1/bin/../lib/gcc/arm-none-eabi/12.3.1/thumb/v7ve+simd/hard\libc_nano.a(libc_a-fvwrite.o)
 .debug_frame   0x00000000       0x3c c:/program files (x86)/arm gnu toolchain arm-none-eabi/12.3 rel1/bin/../lib/gcc/arm-none-eabi/12.3.1/thumb/v7ve+simd/hard\libc_nano.a(libc_a-fvwrite.o)
 .ARM.attributes
                0x00000000       0x3b c:/program files (x86)/arm gnu toolchain arm-none-eabi/12.3 rel1/bin/../lib/gcc/arm-none-eabi/12.3.1/thumb/v7ve+simd/hard\libc_nano.a(libc_a-fvwrite.o)
 .text          0x00000000        0x0 c:/program files (x86)/arm gnu toolchain arm-none-eabi/12.3 rel1/bin/../lib/gcc/arm-none-eabi/12.3.1/thumb/v7ve+simd/hard\libc_nano.a(libc_a-fwalk.o)
 .data          0x00000000        0x0 c:/program files (x86)/arm gnu toolchain arm-none-eabi/12.3 rel1/bin/../lib/gcc/arm-none-eabi/12.3.1/thumb/v7ve+simd/hard\libc_nano.a(libc_a-fwalk.o)
 .bss           0x00000000        0x0 c:/program files (x86)/arm gnu toolchain arm-none-eabi/12.3 rel1/bin/../lib/gcc/arm-none-eabi/12.3.1/thumb/v7ve+simd/hard\libc_nano.a(libc_a-fwalk.o)
 .text          0x00000000        0x0 c:/program files (x86)/arm gnu toolchain arm-none-eabi/12.3 rel1/bin/../lib/gcc/arm-none-eabi/12.3.1/thumb/v7ve+simd/hard\libc_nano.a(libc_a-stdio.o)
 .data          0x00000000        0x0 c:/program files (x86)/arm gnu toolchain arm-none-eabi/12.3 rel1/bin/../lib/gcc/arm-none-eabi/12.3.1/thumb/v7ve+simd/hard\libc_nano.a(libc_a-stdio.o)
 .bss           0x00000000        0x0 c:/program files (x86)/arm gnu toolchain arm-none-eabi/12.3 rel1/bin/../lib/gcc/arm-none-eabi/12.3.1/thumb/v7ve+simd/hard\libc_nano.a(libc_a-stdio.o)
 .text.__seofread
                0x00000000        0x4 c:/program files (x86)/arm gnu toolchain arm-none-eabi/12.3 rel1/bin/../lib/gcc/arm-none-eabi/12.3.1/thumb/v7ve+simd/hard\libc_nano.a(libc_a-stdio.o)
 .text          0x00000000        0x0 c:/program files (x86)/arm gnu toolchain arm-none-eabi/12.3 rel1/bin/../lib/gcc/arm-none-eabi/12.3.1/thumb/v7ve+simd/hard\libc_nano.a(libc_a-wbuf.o)
 .data          0x00000000        0x0 c:/program files (x86)/arm gnu toolchain arm-none-eabi/12.3 rel1/bin/../lib/gcc/arm-none-eabi/12.3.1/thumb/v7ve+simd/hard\libc_nano.a(libc_a-wbuf.o)
 .bss           0x00000000        0x0 c:/program files (x86)/arm gnu toolchain arm-none-eabi/12.3 rel1/bin/../lib/gcc/arm-none-eabi/12.3.1/thumb/v7ve+simd/hard\libc_nano.a(libc_a-wbuf.o)
 .text.__swbuf  0x00000000       0x10 c:/program files (x86)/arm gnu toolchain arm-none-eabi/12.3 rel1/bin/../lib/gcc/arm-none-eabi/12.3.1/thumb/v7ve+simd/hard\libc_nano.a(libc_a-wbuf.o)
 .text          0x00000000        0x0 c:/program files (x86)/arm gnu toolchain arm-none-eabi/12.3 rel1/bin/../lib/gcc/arm-none-eabi/12.3.1/thumb/v7ve+simd/hard\libc_nano.a(libc_a-wsetup.o)
 .data          0x00000000        0x0 c:/program files (x86)/arm gnu toolchain arm-none-eabi/12.3 rel1/bin/../lib/gcc/arm-none-eabi/12.3.1/thumb/v7ve+simd/hard\libc_nano.a(libc_a-wsetup.o)
 .bss           0x00000000        0x0 c:/program files (x86)/arm gnu toolchain arm-none-eabi/12.3 rel1/bin/../lib/gcc/arm-none-eabi/12.3.1/thumb/v7ve+simd/hard\libc_nano.a(libc_a-wsetup.o)
 .text          0x00000000        0x0 c:/program files (x86)/arm gnu toolchain arm-none-eabi/12.3 rel1/bin/../lib/gcc/arm-none-eabi/12.3.1/thumb/v7ve+simd/hard\libc_nano.a(libc_a-memmove.o)
 .data          0x00000000        0x0 c:/program files (x86)/arm gnu toolchain arm-none-eabi/12.3 rel1/bin/../lib/gcc/arm-none-eabi/12.3.1/thumb/v7ve+simd/hard\libc_nano.a(libc_a-memmove.o)
 .bss           0x00000000        0x0 c:/program files (x86)/arm gnu toolchain arm-none-eabi/12.3 rel1/bin/../lib/gcc/arm-none-eabi/12.3.1/thumb/v7ve+simd/hard\libc_nano.a(libc_a-memmove.o)
 .text.memmove  0x00000000       0x34 c:/program files (x86)/arm gnu toolchain arm-none-eabi/12.3 rel1/bin/../lib/gcc/arm-none-eabi/12.3.1/thumb/v7ve+simd/hard\libc_nano.a(libc_a-memmove.o)
 .debug_frame   0x00000000       0x28 c:/program files (x86)/arm gnu toolchain arm-none-eabi/12.3 rel1/bin/../lib/gcc/arm-none-eabi/12.3.1/thumb/v7ve+simd/hard\libc_nano.a(libc_a-memmove.o)
 .ARM.attributes
                0x00000000       0x3b c:/program files (x86)/arm gnu toolchain arm-none-eabi/12.3 rel1/bin/../lib/gcc/arm-none-eabi/12.3.1/thumb/v7ve+simd/hard\libc_nano.a(libc_a-memmove.o)
 .text          0x00000000        0x0 c:/program files (x86)/arm gnu toolchain arm-none-eabi/12.3 rel1/bin/../lib/gcc/arm-none-eabi/12.3.1/thumb/v7ve+simd/hard\libc_nano.a(libc_a-closer.o)
 .data          0x00000000        0x0 c:/program files (x86)/arm gnu toolchain arm-none-eabi/12.3 rel1/bin/../lib/gcc/arm-none-eabi/12.3.1/thumb/v7ve+simd/hard\libc_nano.a(libc_a-closer.o)
 .bss           0x00000000        0x0 c:/program files (x86)/arm gnu toolchain arm-none-eabi/12.3 rel1/bin/../lib/gcc/arm-none-eabi/12.3.1/thumb/v7ve+simd/hard\libc_nano.a(libc_a-closer.o)
 .text          0x00000000        0x0 c:/program files (x86)/arm gnu toolchain arm-none-eabi/12.3 rel1/bin/../lib/gcc/arm-none-eabi/12.3.1/thumb/v7ve+simd/hard\libc_nano.a(libc_a-reent.o)
 .data          0x00000000        0x0 c:/program files (x86)/arm gnu toolchain arm-none-eabi/12.3 rel1/bin/../lib/gcc/arm-none-eabi/12.3.1/thumb/v7ve+simd/hard\libc_nano.a(libc_a-reent.o)
 .bss           0x00000000        0x0 c:/program files (x86)/arm gnu toolchain arm-none-eabi/12.3 rel1/bin/../lib/gcc/arm-none-eabi/12.3.1/thumb/v7ve+simd/hard\libc_nano.a(libc_a-reent.o)
 .text._reclaim_reent
                0x00000000       0xac c:/program files (x86)/arm gnu toolchain arm-none-eabi/12.3 rel1/bin/../lib/gcc/arm-none-eabi/12.3.1/thumb/v7ve+simd/hard\libc_nano.a(libc_a-reent.o)
 .text          0x00000000        0x0 c:/program files (x86)/arm gnu toolchain arm-none-eabi/12.3 rel1/bin/../lib/gcc/arm-none-eabi/12.3.1/thumb/v7ve+simd/hard\libc_nano.a(libc_a-lseekr.o)
 .data          0x00000000        0x0 c:/program files (x86)/arm gnu toolchain arm-none-eabi/12.3 rel1/bin/../lib/gcc/arm-none-eabi/12.3.1/thumb/v7ve+simd/hard\libc_nano.a(libc_a-lseekr.o)
 .bss           0x00000000        0x0 c:/program files (x86)/arm gnu toolchain arm-none-eabi/12.3 rel1/bin/../lib/gcc/arm-none-eabi/12.3.1/thumb/v7ve+simd/hard\libc_nano.a(libc_a-lseekr.o)
 .text          0x00000000        0x0 c:/program files (x86)/arm gnu toolchain arm-none-eabi/12.3 rel1/bin/../lib/gcc/arm-none-eabi/12.3.1/thumb/v7ve+simd/hard\libc_nano.a(libc_a-readr.o)
 .data          0x00000000        0x0 c:/program files (x86)/arm gnu toolchain arm-none-eabi/12.3 rel1/bin/../lib/gcc/arm-none-eabi/12.3.1/thumb/v7ve+simd/hard\libc_nano.a(libc_a-readr.o)
 .bss           0x00000000        0x0 c:/program files (x86)/arm gnu toolchain arm-none-eabi/12.3 rel1/bin/../lib/gcc/arm-none-eabi/12.3.1/thumb/v7ve+simd/hard\libc_nano.a(libc_a-readr.o)
 .text          0x00000000        0x0 c:/program files (x86)/arm gnu toolchain arm-none-eabi/12.3 rel1/bin/../lib/gcc/arm-none-eabi/12.3.1/thumb/v7ve+simd/hard\libc_nano.a(libc_a-writer.o)
 .data          0x00000000        0x0 c:/program files (x86)/arm gnu toolchain arm-none-eabi/12.3 rel1/bin/../lib/gcc/arm-none-eabi/12.3.1/thumb/v7ve+simd/hard\libc_nano.a(libc_a-writer.o)
 .bss           0x00000000        0x0 c:/program files (x86)/arm gnu toolchain arm-none-eabi/12.3 rel1/bin/../lib/gcc/arm-none-eabi/12.3.1/thumb/v7ve+simd/hard\libc_nano.a(libc_a-writer.o)
 .text          0x00000000        0x0 c:/program files (x86)/arm gnu toolchain arm-none-eabi/12.3 rel1/bin/../lib/gcc/arm-none-eabi/12.3.1/thumb/v7ve+simd/hard\libc_nano.a(libc_a-lock.o)
 .data          0x00000000        0x0 c:/program files (x86)/arm gnu toolchain arm-none-eabi/12.3 rel1/bin/../lib/gcc/arm-none-eabi/12.3.1/thumb/v7ve+simd/hard\libc_nano.a(libc_a-lock.o)
 .bss           0x00000000        0x0 c:/program files (x86)/arm gnu toolchain arm-none-eabi/12.3 rel1/bin/../lib/gcc/arm-none-eabi/12.3.1/thumb/v7ve+simd/hard\libc_nano.a(libc_a-lock.o)
 .text.__retarget_lock_init
                0x00000000        0x2 c:/program files (x86)/arm gnu toolchain arm-none-eabi/12.3 rel1/bin/../lib/gcc/arm-none-eabi/12.3.1/thumb/v7ve+simd/hard\libc_nano.a(libc_a-lock.o)
 .text.__retarget_lock_close
                0x00000000        0x2 c:/program files (x86)/arm gnu toolchain arm-none-eabi/12.3 rel1/bin/../lib/gcc/arm-none-eabi/12.3.1/thumb/v7ve+simd/hard\libc_nano.a(libc_a-lock.o)
 .text.__retarget_lock_close_recursive
                0x00000000        0x2 c:/program files (x86)/arm gnu toolchain arm-none-eabi/12.3 rel1/bin/../lib/gcc/arm-none-eabi/12.3.1/thumb/v7ve+simd/hard\libc_nano.a(libc_a-lock.o)
 .text.__retarget_lock_acquire
                0x00000000        0x2 c:/program files (x86)/arm gnu toolchain arm-none-eabi/12.3 rel1/bin/../lib/gcc/arm-none-eabi/12.3.1/thumb/v7ve+simd/hard\libc_nano.a(libc_a-lock.o)
 .text.__retarget_lock_try_acquire
                0x00000000        0x4 c:/program files (x86)/arm gnu toolchain arm-none-eabi/12.3 rel1/bin/../lib/gcc/arm-none-eabi/12.3.1/thumb/v7ve+simd/hard\libc_nano.a(libc_a-lock.o)
 .text.__retarget_lock_try_acquire_recursive
                0x00000000        0x4 c:/program files (x86)/arm gnu toolchain arm-none-eabi/12.3 rel1/bin/../lib/gcc/arm-none-eabi/12.3.1/thumb/v7ve+simd/hard\libc_nano.a(libc_a-lock.o)
 .text.__retarget_lock_release
                0x00000000        0x2 c:/program files (x86)/arm gnu toolchain arm-none-eabi/12.3 rel1/bin/../lib/gcc/arm-none-eabi/12.3.1/thumb/v7ve+simd/hard\libc_nano.a(libc_a-lock.o)
 .bss.__lock___arc4random_mutex
                0x00000000        0x1 c:/program files (x86)/arm gnu toolchain arm-none-eabi/12.3 rel1/bin/../lib/gcc/arm-none-eabi/12.3.1/thumb/v7ve+simd/hard\libc_nano.a(libc_a-lock.o)
 .bss.__lock___dd_hash_mutex
                0x00000000        0x1 c:/program files (x86)/arm gnu toolchain arm-none-eabi/12.3 rel1/bin/../lib/gcc/arm-none-eabi/12.3.1/thumb/v7ve+simd/hard\libc_nano.a(libc_a-lock.o)
 .bss.__lock___tz_mutex
                0x00000000        0x1 c:/program files (x86)/arm gnu toolchain arm-none-eabi/12.3 rel1/bin/../lib/gcc/arm-none-eabi/12.3.1/thumb/v7ve+simd/hard\libc_nano.a(libc_a-lock.o)
 .bss.__lock___env_recursive_mutex
                0x00000000        0x1 c:/program files (x86)/arm gnu toolchain arm-none-eabi/12.3 rel1/bin/../lib/gcc/arm-none-eabi/12.3.1/thumb/v7ve+simd/hard\libc_nano.a(libc_a-lock.o)
 .bss.__lock___at_quick_exit_mutex
                0x00000000        0x1 c:/program files (x86)/arm gnu toolchain arm-none-eabi/12.3 rel1/bin/../lib/gcc/arm-none-eabi/12.3.1/thumb/v7ve+simd/hard\libc_nano.a(libc_a-lock.o)
 .bss.__lock___atexit_recursive_mutex
                0x00000000        0x1 c:/program files (x86)/arm gnu toolchain arm-none-eabi/12.3 rel1/bin/../lib/gcc/arm-none-eabi/12.3.1/thumb/v7ve+simd/hard\libc_nano.a(libc_a-lock.o)
 .data          0x00000000        0x0 c:/program files (x86)/arm gnu toolchain arm-none-eabi/12.3 rel1/bin/../lib/gcc/arm-none-eabi/12.3.1/thumb/v7ve+simd/hard\libc_nano.a(libc_a-memchr.o)
 .bss           0x00000000        0x0 c:/program files (x86)/arm gnu toolchain arm-none-eabi/12.3 rel1/bin/../lib/gcc/arm-none-eabi/12.3.1/thumb/v7ve+simd/hard\libc_nano.a(libc_a-memchr.o)
 .text          0x00000000        0x0 c:/program files (x86)/arm gnu toolchain arm-none-eabi/12.3 rel1/bin/../lib/gcc/arm-none-eabi/12.3.1/thumb/v7ve+simd/hard\libc_nano.a(libc_a-memcpy-stub.o)
 .data          0x00000000        0x0 c:/program files (x86)/arm gnu toolchain arm-none-eabi/12.3 rel1/bin/../lib/gcc/arm-none-eabi/12.3.1/thumb/v7ve+simd/hard\libc_nano.a(libc_a-memcpy-stub.o)
 .bss           0x00000000        0x0 c:/program files (x86)/arm gnu toolchain arm-none-eabi/12.3 rel1/bin/../lib/gcc/arm-none-eabi/12.3.1/thumb/v7ve+simd/hard\libc_nano.a(libc_a-memcpy-stub.o)
 .text.memcpy   0x00000000       0x1a c:/program files (x86)/arm gnu toolchain arm-none-eabi/12.3 rel1/bin/../lib/gcc/arm-none-eabi/12.3.1/thumb/v7ve+simd/hard\libc_nano.a(libc_a-memcpy-stub.o)
 .debug_frame   0x00000000       0x28 c:/program files (x86)/arm gnu toolchain arm-none-eabi/12.3 rel1/bin/../lib/gcc/arm-none-eabi/12.3.1/thumb/v7ve+simd/hard\libc_nano.a(libc_a-memcpy-stub.o)
 .ARM.attributes
                0x00000000       0x3b c:/program files (x86)/arm gnu toolchain arm-none-eabi/12.3 rel1/bin/../lib/gcc/arm-none-eabi/12.3.1/thumb/v7ve+simd/hard\libc_nano.a(libc_a-memcpy-stub.o)
 .text          0x00000000        0x0 c:/program files (x86)/arm gnu toolchain arm-none-eabi/12.3 rel1/bin/../lib/gcc/arm-none-eabi/12.3.1/thumb/v7ve+simd/hard\libc_nano.a(libc_a-freer.o)
 .data          0x00000000        0x0 c:/program files (x86)/arm gnu toolchain arm-none-eabi/12.3 rel1/bin/../lib/gcc/arm-none-eabi/12.3.1/thumb/v7ve+simd/hard\libc_nano.a(libc_a-freer.o)
 .bss           0x00000000        0x0 c:/program files (x86)/arm gnu toolchain arm-none-eabi/12.3 rel1/bin/../lib/gcc/arm-none-eabi/12.3.1/thumb/v7ve+simd/hard\libc_nano.a(libc_a-freer.o)
 .text          0x00000000        0x0 c:/program files (x86)/arm gnu toolchain arm-none-eabi/12.3 rel1/bin/../lib/gcc/arm-none-eabi/12.3.1/thumb/v7ve+simd/hard\libc_nano.a(libc_a-mallocr.o)
 .data          0x00000000        0x0 c:/program files (x86)/arm gnu toolchain arm-none-eabi/12.3 rel1/bin/../lib/gcc/arm-none-eabi/12.3.1/thumb/v7ve+simd/hard\libc_nano.a(libc_a-mallocr.o)
 .bss           0x00000000        0x0 c:/program files (x86)/arm gnu toolchain arm-none-eabi/12.3 rel1/bin/../lib/gcc/arm-none-eabi/12.3.1/thumb/v7ve+simd/hard\libc_nano.a(libc_a-mallocr.o)
 .text          0x00000000        0x0 c:/program files (x86)/arm gnu toolchain arm-none-eabi/12.3 rel1/bin/../lib/gcc/arm-none-eabi/12.3.1/thumb/v7ve+simd/hard\libc_nano.a(libc_a-mlock.o)
 .data          0x00000000        0x0 c:/program files (x86)/arm gnu toolchain arm-none-eabi/12.3 rel1/bin/../lib/gcc/arm-none-eabi/12.3.1/thumb/v7ve+simd/hard\libc_nano.a(libc_a-mlock.o)
 .bss           0x00000000        0x0 c:/program files (x86)/arm gnu toolchain arm-none-eabi/12.3 rel1/bin/../lib/gcc/arm-none-eabi/12.3.1/thumb/v7ve+simd/hard\libc_nano.a(libc_a-mlock.o)
 .text          0x00000000        0x0 c:/program files (x86)/arm gnu toolchain arm-none-eabi/12.3 rel1/bin/../lib/gcc/arm-none-eabi/12.3.1/thumb/v7ve+simd/hard\libc_nano.a(libc_a-reallocr.o)
 .data          0x00000000        0x0 c:/program files (x86)/arm gnu toolchain arm-none-eabi/12.3 rel1/bin/../lib/gcc/arm-none-eabi/12.3.1/thumb/v7ve+simd/hard\libc_nano.a(libc_a-reallocr.o)
 .bss           0x00000000        0x0 c:/program files (x86)/arm gnu toolchain arm-none-eabi/12.3 rel1/bin/../lib/gcc/arm-none-eabi/12.3.1/thumb/v7ve+simd/hard\libc_nano.a(libc_a-reallocr.o)
 .text._realloc_r
                0x00000000       0x5c c:/program files (x86)/arm gnu toolchain arm-none-eabi/12.3 rel1/bin/../lib/gcc/arm-none-eabi/12.3.1/thumb/v7ve+simd/hard\libc_nano.a(libc_a-reallocr.o)
 .debug_frame   0x00000000       0x3c c:/program files (x86)/arm gnu toolchain arm-none-eabi/12.3 rel1/bin/../lib/gcc/arm-none-eabi/12.3.1/thumb/v7ve+simd/hard\libc_nano.a(libc_a-reallocr.o)
 .ARM.attributes
                0x00000000       0x3b c:/program files (x86)/arm gnu toolchain arm-none-eabi/12.3 rel1/bin/../lib/gcc/arm-none-eabi/12.3.1/thumb/v7ve+simd/hard\libc_nano.a(libc_a-reallocr.o)
 .text          0x00000000        0x0 c:/program files (x86)/arm gnu toolchain arm-none-eabi/12.3 rel1/bin/../lib/gcc/arm-none-eabi/12.3.1/thumb/v7ve+simd/hard\libc_nano.a(libc_a-fflush.o)
 .data          0x00000000        0x0 c:/program files (x86)/arm gnu toolchain arm-none-eabi/12.3 rel1/bin/../lib/gcc/arm-none-eabi/12.3.1/thumb/v7ve+simd/hard\libc_nano.a(libc_a-fflush.o)
 .bss           0x00000000        0x0 c:/program files (x86)/arm gnu toolchain arm-none-eabi/12.3 rel1/bin/../lib/gcc/arm-none-eabi/12.3.1/thumb/v7ve+simd/hard\libc_nano.a(libc_a-fflush.o)
 .text.fflush   0x00000000       0x28 c:/program files (x86)/arm gnu toolchain arm-none-eabi/12.3 rel1/bin/../lib/gcc/arm-none-eabi/12.3.1/thumb/v7ve+simd/hard\libc_nano.a(libc_a-fflush.o)
 .text          0x00000000        0x0 c:/program files (x86)/arm gnu toolchain arm-none-eabi/12.3 rel1/bin/../lib/gcc/arm-none-eabi/12.3.1/thumb/v7ve+simd/hard\libc_nano.a(libc_a-makebuf.o)
 .data          0x00000000        0x0 c:/program files (x86)/arm gnu toolchain arm-none-eabi/12.3 rel1/bin/../lib/gcc/arm-none-eabi/12.3.1/thumb/v7ve+simd/hard\libc_nano.a(libc_a-makebuf.o)
 .bss           0x00000000        0x0 c:/program files (x86)/arm gnu toolchain arm-none-eabi/12.3 rel1/bin/../lib/gcc/arm-none-eabi/12.3.1/thumb/v7ve+simd/hard\libc_nano.a(libc_a-makebuf.o)
 .text          0x00000000        0x0 c:/program files (x86)/arm gnu toolchain arm-none-eabi/12.3 rel1/bin/../lib/gcc/arm-none-eabi/12.3.1/thumb/v7ve+simd/hard\libc_nano.a(libc_a-fstatr.o)
 .data          0x00000000        0x0 c:/program files (x86)/arm gnu toolchain arm-none-eabi/12.3 rel1/bin/../lib/gcc/arm-none-eabi/12.3.1/thumb/v7ve+simd/hard\libc_nano.a(libc_a-fstatr.o)
 .bss           0x00000000        0x0 c:/program files (x86)/arm gnu toolchain arm-none-eabi/12.3 rel1/bin/../lib/gcc/arm-none-eabi/12.3.1/thumb/v7ve+simd/hard\libc_nano.a(libc_a-fstatr.o)
 .text          0x00000000        0x0 c:/program files (x86)/arm gnu toolchain arm-none-eabi/12.3 rel1/bin/../lib/gcc/arm-none-eabi/12.3.1/thumb/v7ve+simd/hard\libc_nano.a(libc_a-isattyr.o)
 .data          0x00000000        0x0 c:/program files (x86)/arm gnu toolchain arm-none-eabi/12.3 rel1/bin/../lib/gcc/arm-none-eabi/12.3.1/thumb/v7ve+simd/hard\libc_nano.a(libc_a-isattyr.o)
 .bss           0x00000000        0x0 c:/program files (x86)/arm gnu toolchain arm-none-eabi/12.3 rel1/bin/../lib/gcc/arm-none-eabi/12.3.1/thumb/v7ve+simd/hard\libc_nano.a(libc_a-isattyr.o)
 .text          0x00000000        0x0 c:/program files (x86)/arm gnu toolchain arm-none-eabi/12.3 rel1/bin/../lib/gcc/arm-none-eabi/12.3.1/thumb/v7ve+simd/hard\libc_nano.a(libc_a-sbrkr.o)
 .data          0x00000000        0x0 c:/program files (x86)/arm gnu toolchain arm-none-eabi/12.3 rel1/bin/../lib/gcc/arm-none-eabi/12.3.1/thumb/v7ve+simd/hard\libc_nano.a(libc_a-sbrkr.o)
 .bss           0x00000000        0x0 c:/program files (x86)/arm gnu toolchain arm-none-eabi/12.3 rel1/bin/../lib/gcc/arm-none-eabi/12.3.1/thumb/v7ve+simd/hard\libc_nano.a(libc_a-sbrkr.o)
 .text          0x00000000        0x0 c:/program files (x86)/arm gnu toolchain arm-none-eabi/12.3 rel1/bin/../lib/gcc/arm-none-eabi/12.3.1/thumb/v7ve+simd/hard\libc_nano.a(libc_a-msizer.o)
 .data          0x00000000        0x0 c:/program files (x86)/arm gnu toolchain arm-none-eabi/12.3 rel1/bin/../lib/gcc/arm-none-eabi/12.3.1/thumb/v7ve+simd/hard\libc_nano.a(libc_a-msizer.o)
 .bss           0x00000000        0x0 c:/program files (x86)/arm gnu toolchain arm-none-eabi/12.3 rel1/bin/../lib/gcc/arm-none-eabi/12.3.1/thumb/v7ve+simd/hard\libc_nano.a(libc_a-msizer.o)
 .text._malloc_usable_size_r
                0x00000000       0x10 c:/program files (x86)/arm gnu toolchain arm-none-eabi/12.3 rel1/bin/../lib/gcc/arm-none-eabi/12.3.1/thumb/v7ve+simd/hard\libc_nano.a(libc_a-msizer.o)
 .debug_frame   0x00000000       0x20 c:/program files (x86)/arm gnu toolchain arm-none-eabi/12.3 rel1/bin/../lib/gcc/arm-none-eabi/12.3.1/thumb/v7ve+simd/hard\libc_nano.a(libc_a-msizer.o)
 .ARM.attributes
                0x00000000       0x3b c:/program files (x86)/arm gnu toolchain arm-none-eabi/12.3 rel1/bin/../lib/gcc/arm-none-eabi/12.3.1/thumb/v7ve+simd/hard\libc_nano.a(libc_a-msizer.o)
 .text          0x00000000        0x0 c:/program files (x86)/arm gnu toolchain arm-none-eabi/12.3 rel1/bin/../lib/gcc/arm-none-eabi/12.3.1/thumb/v7ve+simd/hard\libnosys.a(sbrk.o)
 .data          0x00000000        0x0 c:/program files (x86)/arm gnu toolchain arm-none-eabi/12.3 rel1/bin/../lib/gcc/arm-none-eabi/12.3.1/thumb/v7ve+simd/hard\libnosys.a(sbrk.o)
 .bss           0x00000000        0x0 c:/program files (x86)/arm gnu toolchain arm-none-eabi/12.3 rel1/bin/../lib/gcc/arm-none-eabi/12.3.1/thumb/v7ve+simd/hard\libnosys.a(sbrk.o)

Memory Configuration

Name             Origin             Length             Attributes
SYSRAM_BASE      0x2ffe0000         0x00020000         xrw
SRAM1_BASE       0x30000000         0x00004000         xrw
SRAM2_BASE       0x30004000         0x00002000         xrw
SRAM3_BASE       0x30006000         0x00002000         xrw
DDR_BASE         0xc0000000         0x20000000         xrw
*default*        0x00000000         0xffffffff

Linker script and memory map

LOAD build/obj/Src/main.o
LOAD build/obj/Drivers/syscalls.o
LOAD build/obj/Drivers/mmu_stm32mp13xx.o
LOAD build/obj/Drivers/system_stm32mp13xx_A7.o
LOAD build/obj/Drivers/startup_stm32mp135fxx_ca7.o
LOAD build/obj/Drivers/CMSIS/Core_A/Source/irq_ctrl_gic.o
LOAD build/obj/Drivers/STM32MP13xx_HAL_Driver/Src/stm32mp13xx_hal.o
LOAD build/obj/Drivers/STM32MP13xx_HAL_Driver/Src/stm32mp13xx_hal_dma.o
LOAD build/obj/Drivers/STM32MP13xx_HAL_Driver/Src/stm32mp13xx_hal_dma_ex.o
LOAD build/obj/Drivers/STM32MP13xx_HAL_Driver/Src/stm32mp13xx_hal_exti.o
LOAD build/obj/Drivers/STM32MP13xx_HAL_Driver/Src/stm32mp13xx_hal_gpio.o
LOAD build/obj/Drivers/STM32MP13xx_HAL_Driver/Src/stm32mp13xx_hal_i2c.o
LOAD build/obj/Drivers/STM32MP13xx_HAL_Driver/Src/stm32mp13xx_hal_rcc.o
LOAD build/obj/Drivers/STM32MP13xx_HAL_Driver/Src/stm32mp13xx_hal_rcc_ex.o
LOAD build/obj/Drivers/STM32MP13xx_HAL_Driver/Src/stm32mp13xx_hal_uart.o
LOAD build/obj/Drivers/STM32MP13xx_HAL_Driver/Src/stm32mp13xx_hal_uart_ex.o
LOAD build/obj/Drivers/STM32MP13xx_DISCO/stm32mp13xx_disco.o
LOAD build/obj/Drivers/STM32MP13xx_DISCO/stm32mp13xx_disco_bus.o
LOAD build/obj/Drivers/STM32MP13xx_DISCO/stm32mp13xx_disco_stpmic1.o
START GROUP
LOAD c:/program files (x86)/arm gnu toolchain arm-none-eabi/12.3 rel1/bin/../lib/gcc/arm-none-eabi/12.3.1/thumb/v7ve+simd/hard\libgcc.a
LOAD c:/program files (x86)/arm gnu toolchain arm-none-eabi/12.3 rel1/bin/../lib/gcc/arm-none-eabi/12.3.1/thumb/v7ve+simd/hard\libc_nano.a
END GROUP
START GROUP
LOAD c:/program files (x86)/arm gnu toolchain arm-none-eabi/12.3 rel1/bin/../lib/gcc/arm-none-eabi/12.3.1/thumb/v7ve+simd/hard\libgcc.a
LOAD c:/program files (x86)/arm gnu toolchain arm-none-eabi/12.3 rel1/bin/../lib/gcc/arm-none-eabi/12.3.1/thumb/v7ve+simd/hard\libc_nano.a
LOAD c:/program files (x86)/arm gnu toolchain arm-none-eabi/12.3 rel1/bin/../lib/gcc/arm-none-eabi/12.3.1/thumb/v7ve+simd/hard\libnosys.a
END GROUP
START GROUP
LOAD c:/program files (x86)/arm gnu toolchain arm-none-eabi/12.3 rel1/bin/../lib/gcc/arm-none-eabi/12.3.1/thumb/v7ve+simd/hard\libgcc.a
LOAD c:/program files (x86)/arm gnu toolchain arm-none-eabi/12.3 rel1/bin/../lib/gcc/arm-none-eabi/12.3.1/thumb/v7ve+simd/hard\libc_nano.a
LOAD c:/program files (x86)/arm gnu toolchain arm-none-eabi/12.3 rel1/bin/../lib/gcc/arm-none-eabi/12.3.1/thumb/v7ve+simd/hard\libnosys.a
END GROUP
                0x00000200                        _Min_Heap_Size = 0x200
                0x00000400                        _Min_Stack_Size = 0x400
                0x00004000                        TTB_L1_SIZE = 0x4000
                0x00000400                        TTB_L2_SIZE = 0x400
                0x00000000                        START_OFFSET = 0x0
                0x2ffe0000                        __MEM_START__ = (ORIGIN (RAM) + START_OFFSET)
                0x00020000                        __MEM_SIZE__ = (LENGTH (RAM) - START_OFFSET)
                0x00000400                        __FIQ_STACK_SIZE = 0x400
                0x00000400                        __IRQ_STACK_SIZE = 0x400
                0x00000400                        __ABT_STACK_SIZE = 0x400
                0x00000400                        __SVC_STACK_SIZE = 0x400
                0x00000400                        __UND_STACK_SIZE = 0x400
                0x30000000                        FIQ_STACK = (__MEM_START__ + __MEM_SIZE__)
                0x2ffffc00                        IRQ_STACK = (FIQ_STACK - __FIQ_STACK_SIZE)
                0x2ffff800                        ABT_STACK = (IRQ_STACK - __IRQ_STACK_SIZE)
                0x2ffff400                        SVC_STACK = (ABT_STACK - __ABT_STACK_SIZE)
                0x2ffff000                        UND_STACK = (SVC_STACK - __SVC_STACK_SIZE)
                0x2fffec00                        SYS_STACK = (UND_STACK - __UND_STACK_SIZE)
                0x2ffe0000                        . = __MEM_START__

.RESET          0x2ffe0000    0x10000
                0x2ffe0000                        __TEXT_START__ = .
 *(.text.Reset_Handler)
 .text.Reset_Handler
                0x2ffe0000       0xb4 build/obj/Drivers/startup_stm32mp135fxx_ca7.o
                0x2ffe0000                Reset_Handler
 *(RESET)
 *fill*         0x2ffe00b4       0x4c 
 RESET          0x2ffe0100       0x44 build/obj/Drivers/startup_stm32mp135fxx_ca7.o
                0x2ffe0100                Vectors
 *(.text*)
 .text.main     0x2ffe0144       0x64 build/obj/Src/main.o
                0x2ffe0144                main
 .text.SystemClock_Config
                0x2ffe01a8      0x268 build/obj/Src/main.o
                0x2ffe01a8                SystemClock_Config
 .text.PeriphCommonClock_Config
                0x2ffe0410      0x304 build/obj/Src/main.o
                0x2ffe0410                PeriphCommonClock_Config
 .text.HAL_UART_MspInit
                0x2ffe0714       0xdc build/obj/Src/main.o
                0x2ffe0714                HAL_UART_MspInit
 .text.MX_UART4_Init
                0x2ffe07f0      0x140 build/obj/Src/main.o
 .text.__io_putchar
                0x2ffe0930       0x38 build/obj/Src/main.o
                0x2ffe0930                __io_putchar
 .text.__io_getchar
                0x2ffe0968       0x68 build/obj/Src/main.o
                0x2ffe0968                __io_getchar
 .text.Error_Handler
                0x2ffe09d0       0x18 build/obj/Src/main.o
                0x2ffe09d0                Error_Handler
 .text._read    0x2ffe09e8       0x6c build/obj/Drivers/syscalls.o
                0x2ffe09e8                _read
 .text._write   0x2ffe0a54       0x68 build/obj/Drivers/syscalls.o
                0x2ffe0a54                _write
 .text._close   0x2ffe0abc       0x24 build/obj/Drivers/syscalls.o
                0x2ffe0abc                _close
 .text._fstat   0x2ffe0ae0       0x34 build/obj/Drivers/syscalls.o
                0x2ffe0ae0                _fstat
 .text._isatty  0x2ffe0b14       0x24 build/obj/Drivers/syscalls.o
                0x2ffe0b14                _isatty
 .text._lseek   0x2ffe0b38       0x2c build/obj/Drivers/syscalls.o
                0x2ffe0b38                _lseek
 .text._init    0x2ffe0b64       0x18 build/obj/Drivers/syscalls.o
                0x2ffe0b64                _init
 .text.__FPU_Enable
                0x2ffe0b7c       0xcc build/obj/Drivers/system_stm32mp13xx_A7.o
 .text.PL1_SetLoadValue
                0x2ffe0c48       0x3c build/obj/Drivers/system_stm32mp13xx_A7.o
 .text.PL1_GetCurrentValue
                0x2ffe0c84       0x28 build/obj/Drivers/system_stm32mp13xx_A7.o
 .text.MMU_InvalidateTLB
                0x2ffe0cac       0x40 build/obj/Drivers/system_stm32mp13xx_A7.o
 .text.SystemInit_IRQ_ErrorHandler
                0x2ffe0cec        0xc build/obj/Drivers/system_stm32mp13xx_A7.o
 .text.SecurePhysicalTimer_IRQHandler
                0x2ffe0cf8       0x30 build/obj/Drivers/system_stm32mp13xx_A7.o
                0x2ffe0cf8                SecurePhysicalTimer_IRQHandler
 .text.IRQ_Handler
                0x2ffe0d28       0xa0 build/obj/Drivers/system_stm32mp13xx_A7.o
                0x2ffe0d28                IRQ_Handler
 .text.ZeroBss  0x2ffe0dc8       0x4c build/obj/Drivers/system_stm32mp13xx_A7.o
                0x2ffe0dc8                ZeroBss
 .text.SystemInit
                0x2ffe0e14      0x3c0 build/obj/Drivers/system_stm32mp13xx_A7.o
                0x2ffe0e14                SystemInit
 .text.RESERVED_IRQHandler
                0x2ffe11d4       0x18 build/obj/Drivers/startup_stm32mp135fxx_ca7.o
                0x2ffe11d4                RESERVED_IRQHandler
 .text.SGI0_IRQHandler
                0x2ffe11ec       0x18 build/obj/Drivers/startup_stm32mp135fxx_ca7.o
                0x2ffe11ec                SGI0_IRQHandler
 .text.SGI1_IRQHandler
                0x2ffe1204       0x18 build/obj/Drivers/startup_stm32mp135fxx_ca7.o
                0x2ffe1204                SGI1_IRQHandler
 .text.SGI2_IRQHandler
                0x2ffe121c       0x18 build/obj/Drivers/startup_stm32mp135fxx_ca7.o
                0x2ffe121c                SGI2_IRQHandler
 .text.SGI3_IRQHandler
                0x2ffe1234       0x18 build/obj/Drivers/startup_stm32mp135fxx_ca7.o
                0x2ffe1234                SGI3_IRQHandler
 .text.SGI4_IRQHandler
                0x2ffe124c       0x18 build/obj/Drivers/startup_stm32mp135fxx_ca7.o
                0x2ffe124c                SGI4_IRQHandler
 .text.SGI5_IRQHandler
                0x2ffe1264       0x18 build/obj/Drivers/startup_stm32mp135fxx_ca7.o
                0x2ffe1264                SGI5_IRQHandler
 .text.SGI6_IRQHandler
                0x2ffe127c       0x18 build/obj/Drivers/startup_stm32mp135fxx_ca7.o
                0x2ffe127c                SGI6_IRQHandler
 .text.SGI7_IRQHandler
                0x2ffe1294       0x18 build/obj/Drivers/startup_stm32mp135fxx_ca7.o
                0x2ffe1294                SGI7_IRQHandler
 .text.SGI8_IRQHandler
                0x2ffe12ac       0x18 build/obj/Drivers/startup_stm32mp135fxx_ca7.o
                0x2ffe12ac                SGI8_IRQHandler
 .text.SGI9_IRQHandler
                0x2ffe12c4       0x18 build/obj/Drivers/startup_stm32mp135fxx_ca7.o
                0x2ffe12c4                SGI9_IRQHandler
 .text.SGI10_IRQHandler
                0x2ffe12dc       0x18 build/obj/Drivers/startup_stm32mp135fxx_ca7.o
                0x2ffe12dc                SGI10_IRQHandler
 .text.SGI11_IRQHandler
                0x2ffe12f4       0x18 build/obj/Drivers/startup_stm32mp135fxx_ca7.o
                0x2ffe12f4                SGI11_IRQHandler
 .text.SGI12_IRQHandler
                0x2ffe130c       0x18 build/obj/Drivers/startup_stm32mp135fxx_ca7.o
                0x2ffe130c                SGI12_IRQHandler
 .text.SGI13_IRQHandler
                0x2ffe1324       0x18 build/obj/Drivers/startup_stm32mp135fxx_ca7.o
                0x2ffe1324                SGI13_IRQHandler
 .text.SGI14_IRQHandler
                0x2ffe133c       0x18 build/obj/Drivers/startup_stm32mp135fxx_ca7.o
                0x2ffe133c                SGI14_IRQHandler
 .text.SGI15_IRQHandler
                0x2ffe1354       0x18 build/obj/Drivers/startup_stm32mp135fxx_ca7.o
                0x2ffe1354                SGI15_IRQHandler
 .text.VirtualMaintenanceInterrupt_IRQHandler
                0x2ffe136c       0x18 build/obj/Drivers/startup_stm32mp135fxx_ca7.o
                0x2ffe136c                VirtualMaintenanceInterrupt_IRQHandler
 .text.HypervisorTimer_IRQHandler
                0x2ffe1384       0x18 build/obj/Drivers/startup_stm32mp135fxx_ca7.o
                0x2ffe1384                HypervisorTimer_IRQHandler
 .text.VirtualTimer_IRQHandler
                0x2ffe139c       0x18 build/obj/Drivers/startup_stm32mp135fxx_ca7.o
                0x2ffe139c                VirtualTimer_IRQHandler
 .text.Legacy_nFIQ_IRQHandler
                0x2ffe13b4       0x18 build/obj/Drivers/startup_stm32mp135fxx_ca7.o
                0x2ffe13b4                Legacy_nFIQ_IRQHandler
 .text.NonSecurePhysicalTimer_IRQHandler
                0x2ffe13cc       0x18 build/obj/Drivers/startup_stm32mp135fxx_ca7.o
                0x2ffe13cc                NonSecurePhysicalTimer_IRQHandler
 .text.Legacy_nIRQ_IRQHandler
                0x2ffe13e4       0x18 build/obj/Drivers/startup_stm32mp135fxx_ca7.o
                0x2ffe13e4                Legacy_nIRQ_IRQHandler
 .text.PVD_AVD_IRQHandler
                0x2ffe13fc       0x18 build/obj/Drivers/startup_stm32mp135fxx_ca7.o
                0x2ffe13fc                PVD_AVD_IRQHandler
 .text.TAMP_IRQHandler
                0x2ffe1414       0x18 build/obj/Drivers/startup_stm32mp135fxx_ca7.o
                0x2ffe1414                TAMP_IRQHandler
 .text.RTC_WKUP_ALARM_IRQHandler
                0x2ffe142c       0x18 build/obj/Drivers/startup_stm32mp135fxx_ca7.o
                0x2ffe142c                RTC_WKUP_ALARM_IRQHandler
 .text.TZC_IT_IRQHandler
                0x2ffe1444       0x18 build/obj/Drivers/startup_stm32mp135fxx_ca7.o
                0x2ffe1444                TZC_IT_IRQHandler
 .text.RCC_IRQHandler
                0x2ffe145c       0x18 build/obj/Drivers/startup_stm32mp135fxx_ca7.o
                0x2ffe145c                RCC_IRQHandler
 .text.EXTI0_IRQHandler
                0x2ffe1474       0x18 build/obj/Drivers/startup_stm32mp135fxx_ca7.o
                0x2ffe1474                EXTI0_IRQHandler
 .text.EXTI1_IRQHandler
                0x2ffe148c       0x18 build/obj/Drivers/startup_stm32mp135fxx_ca7.o
                0x2ffe148c                EXTI1_IRQHandler
 .text.EXTI2_IRQHandler
                0x2ffe14a4       0x18 build/obj/Drivers/startup_stm32mp135fxx_ca7.o
                0x2ffe14a4                EXTI2_IRQHandler
 .text.EXTI3_IRQHandler
                0x2ffe14bc       0x18 build/obj/Drivers/startup_stm32mp135fxx_ca7.o
                0x2ffe14bc                EXTI3_IRQHandler
 .text.EXTI4_IRQHandler
                0x2ffe14d4       0x18 build/obj/Drivers/startup_stm32mp135fxx_ca7.o
                0x2ffe14d4                EXTI4_IRQHandler
 .text.DMA1_Stream0_IRQHandler
                0x2ffe14ec       0x18 build/obj/Drivers/startup_stm32mp135fxx_ca7.o
                0x2ffe14ec                DMA1_Stream0_IRQHandler
 .text.DMA1_Stream1_IRQHandler
                0x2ffe1504       0x18 build/obj/Drivers/startup_stm32mp135fxx_ca7.o
                0x2ffe1504                DMA1_Stream1_IRQHandler
 .text.DMA1_Stream2_IRQHandler
                0x2ffe151c       0x18 build/obj/Drivers/startup_stm32mp135fxx_ca7.o
                0x2ffe151c                DMA1_Stream2_IRQHandler
 .text.DMA1_Stream3_IRQHandler
                0x2ffe1534       0x18 build/obj/Drivers/startup_stm32mp135fxx_ca7.o
                0x2ffe1534                DMA1_Stream3_IRQHandler
 .text.DMA1_Stream4_IRQHandler
                0x2ffe154c       0x18 build/obj/Drivers/startup_stm32mp135fxx_ca7.o
                0x2ffe154c                DMA1_Stream4_IRQHandler
 .text.DMA1_Stream5_IRQHandler
                0x2ffe1564       0x18 build/obj/Drivers/startup_stm32mp135fxx_ca7.o
                0x2ffe1564                DMA1_Stream5_IRQHandler
 .text.DMA1_Stream6_IRQHandler
                0x2ffe157c       0x18 build/obj/Drivers/startup_stm32mp135fxx_ca7.o
                0x2ffe157c                DMA1_Stream6_IRQHandler
 .text.ADC1_IRQHandler
                0x2ffe1594       0x18 build/obj/Drivers/startup_stm32mp135fxx_ca7.o
                0x2ffe1594                ADC1_IRQHandler
 .text.ADC2_IRQHandler
                0x2ffe15ac       0x18 build/obj/Drivers/startup_stm32mp135fxx_ca7.o
                0x2ffe15ac                ADC2_IRQHandler
 .text.FDCAN1_IT0_IRQHandler
                0x2ffe15c4       0x18 build/obj/Drivers/startup_stm32mp135fxx_ca7.o
                0x2ffe15c4                FDCAN1_IT0_IRQHandler
 .text.FDCAN2_IT0_IRQHandler
                0x2ffe15dc       0x18 build/obj/Drivers/startup_stm32mp135fxx_ca7.o
                0x2ffe15dc                FDCAN2_IT0_IRQHandler
 .text.FDCAN1_IT1_IRQHandler
                0x2ffe15f4       0x18 build/obj/Drivers/startup_stm32mp135fxx_ca7.o
                0x2ffe15f4                FDCAN1_IT1_IRQHandler
 .text.FDCAN2_IT1_IRQHandler
                0x2ffe160c       0x18 build/obj/Drivers/startup_stm32mp135fxx_ca7.o
                0x2ffe160c                FDCAN2_IT1_IRQHandler
 .text.EXTI5_IRQHandler
                0x2ffe1624       0x18 build/obj/Drivers/startup_stm32mp135fxx_ca7.o
                0x2ffe1624                EXTI5_IRQHandler
 .text.TIM1_BRK_IRQHandler
                0x2ffe163c       0x18 build/obj/Drivers/startup_stm32mp135fxx_ca7.o
                0x2ffe163c                TIM1_BRK_IRQHandler
 .text.TIM1_UP_IRQHandler
                0x2ffe1654       0x18 build/obj/Drivers/startup_stm32mp135fxx_ca7.o
                0x2ffe1654                TIM1_UP_IRQHandler
 .text.TIM1_TRG_COM_IRQHandler
                0x2ffe166c       0x18 build/obj/Drivers/startup_stm32mp135fxx_ca7.o
                0x2ffe166c                TIM1_TRG_COM_IRQHandler
 .text.TIM1_CC_IRQHandler
                0x2ffe1684       0x18 build/obj/Drivers/startup_stm32mp135fxx_ca7.o
                0x2ffe1684                TIM1_CC_IRQHandler
 .text.TIM2_IRQHandler
                0x2ffe169c       0x18 build/obj/Drivers/startup_stm32mp135fxx_ca7.o
                0x2ffe169c                TIM2_IRQHandler
 .text.TIM3_IRQHandler
                0x2ffe16b4       0x18 build/obj/Drivers/startup_stm32mp135fxx_ca7.o
                0x2ffe16b4                TIM3_IRQHandler
 .text.TIM4_IRQHandler
                0x2ffe16cc       0x18 build/obj/Drivers/startup_stm32mp135fxx_ca7.o
                0x2ffe16cc                TIM4_IRQHandler
 .text.I2C1_EV_IRQHandler
                0x2ffe16e4       0x18 build/obj/Drivers/startup_stm32mp135fxx_ca7.o
                0x2ffe16e4                I2C1_EV_IRQHandler
 .text.I2C1_ER_IRQHandler
                0x2ffe16fc       0x18 build/obj/Drivers/startup_stm32mp135fxx_ca7.o
                0x2ffe16fc                I2C1_ER_IRQHandler
 .text.I2C2_EV_IRQHandler
                0x2ffe1714       0x18 build/obj/Drivers/startup_stm32mp135fxx_ca7.o
                0x2ffe1714                I2C2_EV_IRQHandler
 .text.I2C2_ER_IRQHandler
                0x2ffe172c       0x18 build/obj/Drivers/startup_stm32mp135fxx_ca7.o
                0x2ffe172c                I2C2_ER_IRQHandler
 .text.SPI1_IRQHandler
                0x2ffe1744       0x18 build/obj/Drivers/startup_stm32mp135fxx_ca7.o
                0x2ffe1744                SPI1_IRQHandler
 .text.SPI2_IRQHandler
                0x2ffe175c       0x18 build/obj/Drivers/startup_stm32mp135fxx_ca7.o
                0x2ffe175c                SPI2_IRQHandler
 .text.USART1_IRQHandler
                0x2ffe1774       0x18 build/obj/Drivers/startup_stm32mp135fxx_ca7.o
                0x2ffe1774                USART1_IRQHandler
 .text.USART2_IRQHandler
                0x2ffe178c       0x18 build/obj/Drivers/startup_stm32mp135fxx_ca7.o
                0x2ffe178c                USART2_IRQHandler
 .text.USART3_IRQHandler
                0x2ffe17a4       0x18 build/obj/Drivers/startup_stm32mp135fxx_ca7.o
                0x2ffe17a4                USART3_IRQHandler
 .text.EXTI10_IRQHandler
                0x2ffe17bc       0x18 build/obj/Drivers/startup_stm32mp135fxx_ca7.o
                0x2ffe17bc                EXTI10_IRQHandler
 .text.RTC_TIMESTAMP_IRQHandler
                0x2ffe17d4       0x18 build/obj/Drivers/startup_stm32mp135fxx_ca7.o
                0x2ffe17d4                RTC_TIMESTAMP_IRQHandler
 .text.EXTI11_IRQHandler
                0x2ffe17ec       0x18 build/obj/Drivers/startup_stm32mp135fxx_ca7.o
                0x2ffe17ec                EXTI11_IRQHandler
 .text.TIM8_BRK_IRQHandler
                0x2ffe1804       0x18 build/obj/Drivers/startup_stm32mp135fxx_ca7.o
                0x2ffe1804                TIM8_BRK_IRQHandler
 .text.TIM8_UP_IRQHandler
                0x2ffe181c       0x18 build/obj/Drivers/startup_stm32mp135fxx_ca7.o
                0x2ffe181c                TIM8_UP_IRQHandler
 .text.TIM8_TRG_COM_IRQHandler
                0x2ffe1834       0x18 build/obj/Drivers/startup_stm32mp135fxx_ca7.o
                0x2ffe1834                TIM8_TRG_COM_IRQHandler
 .text.TIM8_CC_IRQHandler
                0x2ffe184c       0x18 build/obj/Drivers/startup_stm32mp135fxx_ca7.o
                0x2ffe184c                TIM8_CC_IRQHandler
 .text.DMA1_Stream7_IRQHandler
                0x2ffe1864       0x18 build/obj/Drivers/startup_stm32mp135fxx_ca7.o
                0x2ffe1864                DMA1_Stream7_IRQHandler
 .text.FMC_IRQHandler
                0x2ffe187c       0x18 build/obj/Drivers/startup_stm32mp135fxx_ca7.o
                0x2ffe187c                FMC_IRQHandler
 .text.SDMMC1_IRQHandler
                0x2ffe1894       0x18 build/obj/Drivers/startup_stm32mp135fxx_ca7.o
                0x2ffe1894                SDMMC1_IRQHandler
 .text.TIM5_IRQHandler
                0x2ffe18ac       0x18 build/obj/Drivers/startup_stm32mp135fxx_ca7.o
                0x2ffe18ac                TIM5_IRQHandler
 .text.SPI3_IRQHandler
                0x2ffe18c4       0x18 build/obj/Drivers/startup_stm32mp135fxx_ca7.o
                0x2ffe18c4                SPI3_IRQHandler
 .text.UART4_IRQHandler
                0x2ffe18dc       0x18 build/obj/Drivers/startup_stm32mp135fxx_ca7.o
                0x2ffe18dc                UART4_IRQHandler
 .text.UART5_IRQHandler
                0x2ffe18f4       0x18 build/obj/Drivers/startup_stm32mp135fxx_ca7.o
                0x2ffe18f4                UART5_IRQHandler
 .text.TIM6_IRQHandler
                0x2ffe190c       0x18 build/obj/Drivers/startup_stm32mp135fxx_ca7.o
                0x2ffe190c                TIM6_IRQHandler
 .text.TIM7_IRQHandler
                0x2ffe1924       0x18 build/obj/Drivers/startup_stm32mp135fxx_ca7.o
                0x2ffe1924                TIM7_IRQHandler
 .text.DMA2_Stream0_IRQHandler
                0x2ffe193c       0x18 build/obj/Drivers/startup_stm32mp135fxx_ca7.o
                0x2ffe193c                DMA2_Stream0_IRQHandler
 .text.DMA2_Stream1_IRQHandler
                0x2ffe1954       0x18 build/obj/Drivers/startup_stm32mp135fxx_ca7.o
                0x2ffe1954                DMA2_Stream1_IRQHandler
 .text.DMA2_Stream2_IRQHandler
                0x2ffe196c       0x18 build/obj/Drivers/startup_stm32mp135fxx_ca7.o
                0x2ffe196c                DMA2_Stream2_IRQHandler
 .text.DMA2_Stream3_IRQHandler
                0x2ffe1984       0x18 build/obj/Drivers/startup_stm32mp135fxx_ca7.o
                0x2ffe1984                DMA2_Stream3_IRQHandler
 .text.DMA2_Stream4_IRQHandler
                0x2ffe199c       0x18 build/obj/Drivers/startup_stm32mp135fxx_ca7.o
                0x2ffe199c                DMA2_Stream4_IRQHandler
 .text.ETH1_IRQHandler
                0x2ffe19b4       0x18 build/obj/Drivers/startup_stm32mp135fxx_ca7.o
                0x2ffe19b4                ETH1_IRQHandler
 .text.ETH1_WKUP_IRQHandler
                0x2ffe19cc       0x18 build/obj/Drivers/startup_stm32mp135fxx_ca7.o
                0x2ffe19cc                ETH1_WKUP_IRQHandler
 .text.FDCAN_CAL_IRQHandler
                0x2ffe19e4       0x18 build/obj/Drivers/startup_stm32mp135fxx_ca7.o
                0x2ffe19e4                FDCAN_CAL_IRQHandler
 .text.EXTI6_IRQHandler
                0x2ffe19fc       0x18 build/obj/Drivers/startup_stm32mp135fxx_ca7.o
                0x2ffe19fc                EXTI6_IRQHandler
 .text.EXTI7_IRQHandler
                0x2ffe1a14       0x18 build/obj/Drivers/startup_stm32mp135fxx_ca7.o
                0x2ffe1a14                EXTI7_IRQHandler
 .text.EXTI8_IRQHandler
                0x2ffe1a2c       0x18 build/obj/Drivers/startup_stm32mp135fxx_ca7.o
                0x2ffe1a2c                EXTI8_IRQHandler
 .text.EXTI9_IRQHandler
                0x2ffe1a44       0x18 build/obj/Drivers/startup_stm32mp135fxx_ca7.o
                0x2ffe1a44                EXTI9_IRQHandler
 .text.DMA2_Stream5_IRQHandler
                0x2ffe1a5c       0x18 build/obj/Drivers/startup_stm32mp135fxx_ca7.o
                0x2ffe1a5c                DMA2_Stream5_IRQHandler
 .text.DMA2_Stream6_IRQHandler
                0x2ffe1a74       0x18 build/obj/Drivers/startup_stm32mp135fxx_ca7.o
                0x2ffe1a74                DMA2_Stream6_IRQHandler
 .text.DMA2_Stream7_IRQHandler
                0x2ffe1a8c       0x18 build/obj/Drivers/startup_stm32mp135fxx_ca7.o
                0x2ffe1a8c                DMA2_Stream7_IRQHandler
 .text.USART6_IRQHandler
                0x2ffe1aa4       0x18 build/obj/Drivers/startup_stm32mp135fxx_ca7.o
                0x2ffe1aa4                USART6_IRQHandler
 .text.I2C3_EV_IRQHandler
                0x2ffe1abc       0x18 build/obj/Drivers/startup_stm32mp135fxx_ca7.o
                0x2ffe1abc                I2C3_EV_IRQHandler
 .text.I2C3_ER_IRQHandler
                0x2ffe1ad4       0x18 build/obj/Drivers/startup_stm32mp135fxx_ca7.o
                0x2ffe1ad4                I2C3_ER_IRQHandler
 .text.USBH_PORT1_IRQHandler
                0x2ffe1aec       0x18 build/obj/Drivers/startup_stm32mp135fxx_ca7.o
                0x2ffe1aec                USBH_PORT1_IRQHandler
 .text.USBH_PORT2_IRQHandler
                0x2ffe1b04       0x18 build/obj/Drivers/startup_stm32mp135fxx_ca7.o
                0x2ffe1b04                USBH_PORT2_IRQHandler
 .text.EXTI12_IRQHandler
                0x2ffe1b1c       0x18 build/obj/Drivers/startup_stm32mp135fxx_ca7.o
                0x2ffe1b1c                EXTI12_IRQHandler
 .text.EXTI13_IRQHandler
                0x2ffe1b34       0x18 build/obj/Drivers/startup_stm32mp135fxx_ca7.o
                0x2ffe1b34                EXTI13_IRQHandler
 .text.DCMIPP_IRQHandler
                0x2ffe1b4c       0x18 build/obj/Drivers/startup_stm32mp135fxx_ca7.o
                0x2ffe1b4c                DCMIPP_IRQHandler
 .text.CRYP1_IRQHandler
                0x2ffe1b64       0x18 build/obj/Drivers/startup_stm32mp135fxx_ca7.o
                0x2ffe1b64                CRYP1_IRQHandler
 .text.HASH1_IRQHandler
                0x2ffe1b7c       0x18 build/obj/Drivers/startup_stm32mp135fxx_ca7.o
                0x2ffe1b7c                HASH1_IRQHandler
 .text.SAES_IRQHandler
                0x2ffe1b94       0x18 build/obj/Drivers/startup_stm32mp135fxx_ca7.o
                0x2ffe1b94                SAES_IRQHandler
 .text.UART7_IRQHandler
                0x2ffe1bac       0x18 build/obj/Drivers/startup_stm32mp135fxx_ca7.o
                0x2ffe1bac                UART7_IRQHandler
 .text.UART8_IRQHandler
                0x2ffe1bc4       0x18 build/obj/Drivers/startup_stm32mp135fxx_ca7.o
                0x2ffe1bc4                UART8_IRQHandler
 .text.SPI4_IRQHandler
                0x2ffe1bdc       0x18 build/obj/Drivers/startup_stm32mp135fxx_ca7.o
                0x2ffe1bdc                SPI4_IRQHandler
 .text.SPI5_IRQHandler
                0x2ffe1bf4       0x18 build/obj/Drivers/startup_stm32mp135fxx_ca7.o
                0x2ffe1bf4                SPI5_IRQHandler
 .text.SAI1_IRQHandler
                0x2ffe1c0c       0x18 build/obj/Drivers/startup_stm32mp135fxx_ca7.o
                0x2ffe1c0c                SAI1_IRQHandler
 .text.LTDC_IRQHandler
                0x2ffe1c24       0x18 build/obj/Drivers/startup_stm32mp135fxx_ca7.o
                0x2ffe1c24                LTDC_IRQHandler
 .text.LTDC_ER_IRQHandler
                0x2ffe1c3c       0x18 build/obj/Drivers/startup_stm32mp135fxx_ca7.o
                0x2ffe1c3c                LTDC_ER_IRQHandler
 .text.SAI2_IRQHandler
                0x2ffe1c54       0x18 build/obj/Drivers/startup_stm32mp135fxx_ca7.o
                0x2ffe1c54                SAI2_IRQHandler
 .text.QUADSPI_IRQHandler
                0x2ffe1c6c       0x18 build/obj/Drivers/startup_stm32mp135fxx_ca7.o
                0x2ffe1c6c                QUADSPI_IRQHandler
 .text.LPTIM1_IRQHandler
                0x2ffe1c84       0x18 build/obj/Drivers/startup_stm32mp135fxx_ca7.o
                0x2ffe1c84                LPTIM1_IRQHandler
 .text.I2C4_EV_IRQHandler
                0x2ffe1c9c       0x18 build/obj/Drivers/startup_stm32mp135fxx_ca7.o
                0x2ffe1c9c                I2C4_EV_IRQHandler
 .text.I2C4_ER_IRQHandler
                0x2ffe1cb4       0x18 build/obj/Drivers/startup_stm32mp135fxx_ca7.o
                0x2ffe1cb4                I2C4_ER_IRQHandler
 .text.SPDIF_RX_IRQHandler
                0x2ffe1ccc       0x18 build/obj/Drivers/startup_stm32mp135fxx_ca7.o
                0x2ffe1ccc                SPDIF_RX_IRQHandler
 .text.OTG_IRQHandler
                0x2ffe1ce4       0x18 build/obj/Drivers/startup_stm32mp135fxx_ca7.o
                0x2ffe1ce4                OTG_IRQHandler
 .text.ETH2_IRQHandler
                0x2ffe1cfc       0x18 build/obj/Drivers/startup_stm32mp135fxx_ca7.o
                0x2ffe1cfc                ETH2_IRQHandler
 .text.ETH2_WKUP_IRQHandler
                0x2ffe1d14       0x18 build/obj/Drivers/startup_stm32mp135fxx_ca7.o
                0x2ffe1d14                ETH2_WKUP_IRQHandler
 .text.DMAMUX1_OVR_IRQHandler
                0x2ffe1d2c       0x18 build/obj/Drivers/startup_stm32mp135fxx_ca7.o
                0x2ffe1d2c                DMAMUX1_OVR_IRQHandler
 .text.DMAMUX2_OVR_IRQHandler
                0x2ffe1d44       0x18 build/obj/Drivers/startup_stm32mp135fxx_ca7.o
                0x2ffe1d44                DMAMUX2_OVR_IRQHandler
 .text.TIM15_IRQHandler
                0x2ffe1d5c       0x18 build/obj/Drivers/startup_stm32mp135fxx_ca7.o
                0x2ffe1d5c                TIM15_IRQHandler
 .text.TIM16_IRQHandler
                0x2ffe1d74       0x18 build/obj/Drivers/startup_stm32mp135fxx_ca7.o
                0x2ffe1d74                TIM16_IRQHandler
 .text.TIM17_IRQHandler
                0x2ffe1d8c       0x18 build/obj/Drivers/startup_stm32mp135fxx_ca7.o
                0x2ffe1d8c                TIM17_IRQHandler
 .text.TIM12_IRQHandler
                0x2ffe1da4       0x18 build/obj/Drivers/startup_stm32mp135fxx_ca7.o
                0x2ffe1da4                TIM12_IRQHandler
 .text.PKA_IRQHandler
                0x2ffe1dbc       0x18 build/obj/Drivers/startup_stm32mp135fxx_ca7.o
                0x2ffe1dbc                PKA_IRQHandler
 .text.EXTI14_IRQHandler
                0x2ffe1dd4       0x18 build/obj/Drivers/startup_stm32mp135fxx_ca7.o
                0x2ffe1dd4                EXTI14_IRQHandler
 .text.MDMA_IRQHandler
                0x2ffe1dec       0x18 build/obj/Drivers/startup_stm32mp135fxx_ca7.o
                0x2ffe1dec                MDMA_IRQHandler
 .text.SDMMC2_IRQHandler
                0x2ffe1e04       0x18 build/obj/Drivers/startup_stm32mp135fxx_ca7.o
                0x2ffe1e04                SDMMC2_IRQHandler
 .text.EXTI15_IRQHandler
                0x2ffe1e1c       0x18 build/obj/Drivers/startup_stm32mp135fxx_ca7.o
                0x2ffe1e1c                EXTI15_IRQHandler
 .text.MDMA_SEC_IT_IRQHandler
                0x2ffe1e34       0x18 build/obj/Drivers/startup_stm32mp135fxx_ca7.o
                0x2ffe1e34                MDMA_SEC_IT_IRQHandler
 .text.TIM13_IRQHandler
                0x2ffe1e4c       0x18 build/obj/Drivers/startup_stm32mp135fxx_ca7.o
                0x2ffe1e4c                TIM13_IRQHandler
 .text.TIM14_IRQHandler
                0x2ffe1e64       0x18 build/obj/Drivers/startup_stm32mp135fxx_ca7.o
                0x2ffe1e64                TIM14_IRQHandler
 .text.RNG1_IRQHandler
                0x2ffe1e7c       0x18 build/obj/Drivers/startup_stm32mp135fxx_ca7.o
                0x2ffe1e7c                RNG1_IRQHandler
 .text.I2C5_EV_IRQHandler
                0x2ffe1e94       0x18 build/obj/Drivers/startup_stm32mp135fxx_ca7.o
                0x2ffe1e94                I2C5_EV_IRQHandler
 .text.I2C5_ER_IRQHandler
                0x2ffe1eac       0x18 build/obj/Drivers/startup_stm32mp135fxx_ca7.o
                0x2ffe1eac                I2C5_ER_IRQHandler
 .text.LPTIM2_IRQHandler
                0x2ffe1ec4       0x18 build/obj/Drivers/startup_stm32mp135fxx_ca7.o
                0x2ffe1ec4                LPTIM2_IRQHandler
 .text.LPTIM3_IRQHandler
                0x2ffe1edc       0x18 build/obj/Drivers/startup_stm32mp135fxx_ca7.o
                0x2ffe1edc                LPTIM3_IRQHandler
 .text.LPTIM4_IRQHandler
                0x2ffe1ef4       0x18 build/obj/Drivers/startup_stm32mp135fxx_ca7.o
                0x2ffe1ef4                LPTIM4_IRQHandler
 .text.LPTIM5_IRQHandler
                0x2ffe1f0c       0x18 build/obj/Drivers/startup_stm32mp135fxx_ca7.o
                0x2ffe1f0c                LPTIM5_IRQHandler
 .text.ETH1_LPI_IRQHandler
                0x2ffe1f24       0x18 build/obj/Drivers/startup_stm32mp135fxx_ca7.o
                0x2ffe1f24                ETH1_LPI_IRQHandler
 .text.ETH2_LPI_IRQHandler
                0x2ffe1f3c       0x18 build/obj/Drivers/startup_stm32mp135fxx_ca7.o
                0x2ffe1f3c                ETH2_LPI_IRQHandler
 .text.RCC_WAKEUP_IRQHandler
                0x2ffe1f54       0x18 build/obj/Drivers/startup_stm32mp135fxx_ca7.o
                0x2ffe1f54                RCC_WAKEUP_IRQHandler
 .text.DTS_IRQHandler
                0x2ffe1f6c       0x18 build/obj/Drivers/startup_stm32mp135fxx_ca7.o
                0x2ffe1f6c                DTS_IRQHandler
 .text.MPU_WAKEUP_PIN_IRQHandler
                0x2ffe1f84       0x18 build/obj/Drivers/startup_stm32mp135fxx_ca7.o
                0x2ffe1f84                MPU_WAKEUP_PIN_IRQHandler
 .text.IWDG1_IRQHandler
                0x2ffe1f9c       0x18 build/obj/Drivers/startup_stm32mp135fxx_ca7.o
                0x2ffe1f9c                IWDG1_IRQHandler
 .text.IWDG2_IRQHandler
                0x2ffe1fb4       0x18 build/obj/Drivers/startup_stm32mp135fxx_ca7.o
                0x2ffe1fb4                IWDG2_IRQHandler
 .text.TAMP_SIRQHandler
                0x2ffe1fcc       0x18 build/obj/Drivers/startup_stm32mp135fxx_ca7.o
                0x2ffe1fcc                TAMP_SIRQHandler
 .text.RTC_WKUP_ALARM_S_IRQHandler
                0x2ffe1fe4       0x18 build/obj/Drivers/startup_stm32mp135fxx_ca7.o
                0x2ffe1fe4                RTC_WKUP_ALARM_S_IRQHandler
 .text.RTC_TS_S_IRQHandler
                0x2ffe1ffc       0x18 build/obj/Drivers/startup_stm32mp135fxx_ca7.o
                0x2ffe1ffc                RTC_TS_S_IRQHandler
 .text.LTDC_SEC_IRQHandler
                0x2ffe2014       0x18 build/obj/Drivers/startup_stm32mp135fxx_ca7.o
                0x2ffe2014                LTDC_SEC_IRQHandler
 .text.LTDC_SEC_ER_IRQHandler
                0x2ffe202c       0x18 build/obj/Drivers/startup_stm32mp135fxx_ca7.o
                0x2ffe202c                LTDC_SEC_ER_IRQHandler
 .text.PMUIRQ0_IRQHandler
                0x2ffe2044       0x18 build/obj/Drivers/startup_stm32mp135fxx_ca7.o
                0x2ffe2044                PMUIRQ0_IRQHandler
 .text.COMMRX0_IRQHandler
                0x2ffe205c       0x18 build/obj/Drivers/startup_stm32mp135fxx_ca7.o
                0x2ffe205c                COMMRX0_IRQHandler
 .text.COMMTX0_IRQHandler
                0x2ffe2074       0x18 build/obj/Drivers/startup_stm32mp135fxx_ca7.o
                0x2ffe2074                COMMTX0_IRQHandler
 .text.AXIERRIRQ_IRQHandler
                0x2ffe208c       0x18 build/obj/Drivers/startup_stm32mp135fxx_ca7.o
                0x2ffe208c                AXIERRIRQ_IRQHandler
 .text.DDRPERFM_IRQHandler
                0x2ffe20a4       0x18 build/obj/Drivers/startup_stm32mp135fxx_ca7.o
                0x2ffe20a4                DDRPERFM_IRQHandler
 .text.nCTIIRQ0_IRQHandler
                0x2ffe20bc       0x18 build/obj/Drivers/startup_stm32mp135fxx_ca7.o
                0x2ffe20bc                nCTIIRQ0_IRQHandler
 .text.MCE_IRQHandler
                0x2ffe20d4       0x18 build/obj/Drivers/startup_stm32mp135fxx_ca7.o
                0x2ffe20d4                MCE_IRQHandler
 .text.DFSDM1_IRQHandler
                0x2ffe20ec       0x18 build/obj/Drivers/startup_stm32mp135fxx_ca7.o
                0x2ffe20ec                DFSDM1_IRQHandler
 .text.DFSDM2_IRQHandler
                0x2ffe2104       0x18 build/obj/Drivers/startup_stm32mp135fxx_ca7.o
                0x2ffe2104                DFSDM2_IRQHandler
 .text.DMA3_Stream0_IRQHandler
                0x2ffe211c       0x18 build/obj/Drivers/startup_stm32mp135fxx_ca7.o
                0x2ffe211c                DMA3_Stream0_IRQHandler
 .text.DMA3_Stream1_IRQHandler
                0x2ffe2134       0x18 build/obj/Drivers/startup_stm32mp135fxx_ca7.o
                0x2ffe2134                DMA3_Stream1_IRQHandler
 .text.DMA3_Stream2_IRQHandler
                0x2ffe214c       0x18 build/obj/Drivers/startup_stm32mp135fxx_ca7.o
                0x2ffe214c                DMA3_Stream2_IRQHandler
 .text.DMA3_Stream3_IRQHandler
                0x2ffe2164       0x18 build/obj/Drivers/startup_stm32mp135fxx_ca7.o
                0x2ffe2164                DMA3_Stream3_IRQHandler
 .text.DMA3_Stream4_IRQHandler
                0x2ffe217c       0x18 build/obj/Drivers/startup_stm32mp135fxx_ca7.o
                0x2ffe217c                DMA3_Stream4_IRQHandler
 .text.DMA3_Stream5_IRQHandler
                0x2ffe2194       0x18 build/obj/Drivers/startup_stm32mp135fxx_ca7.o
                0x2ffe2194                DMA3_Stream5_IRQHandler
 .text.DMA3_Stream6_IRQHandler
                0x2ffe21ac       0x18 build/obj/Drivers/startup_stm32mp135fxx_ca7.o
                0x2ffe21ac                DMA3_Stream6_IRQHandler
 .text.DMA3_Stream7_IRQHandler
                0x2ffe21c4       0x18 build/obj/Drivers/startup_stm32mp135fxx_ca7.o
                0x2ffe21c4                DMA3_Stream7_IRQHandler
 .text.Default_Handler
                0x2ffe21dc        0xc build/obj/Drivers/startup_stm32mp135fxx_ca7.o
                0x2ffe21dc                Rsvd_Handler
                0x2ffe21dc                Default_Handler
                0x2ffe21dc                SVC_Handler
                0x2ffe21dc                DAbt_Handler
                0x2ffe21dc                FIQ_Handler
                0x2ffe21dc                PAbt_Handler
                0x2ffe21dc                Undef_Handler
 .text.GIC_EnableDistributor
                0x2ffe21e8       0x34 build/obj/Drivers/CMSIS/Core_A/Source/irq_ctrl_gic.o
 .text.GIC_DisableDistributor
                0x2ffe221c       0x34 build/obj/Drivers/CMSIS/Core_A/Source/irq_ctrl_gic.o
 .text.GIC_DistributorInfo
                0x2ffe2250       0x24 build/obj/Drivers/CMSIS/Core_A/Source/irq_ctrl_gic.o
 .text.GIC_SetTarget
                0x2ffe2274       0xa4 build/obj/Drivers/CMSIS/Core_A/Source/irq_ctrl_gic.o
 .text.GIC_EnableInterface
                0x2ffe2318       0x34 build/obj/Drivers/CMSIS/Core_A/Source/irq_ctrl_gic.o
 .text.GIC_DisableInterface
                0x2ffe234c       0x34 build/obj/Drivers/CMSIS/Core_A/Source/irq_ctrl_gic.o
 .text.GIC_AcknowledgePending
                0x2ffe2380       0x28 build/obj/Drivers/CMSIS/Core_A/Source/irq_ctrl_gic.o
 .text.GIC_EndInterrupt
                0x2ffe23a8       0x34 build/obj/Drivers/CMSIS/Core_A/Source/irq_ctrl_gic.o
 .text.GIC_EnableIRQ
                0x2ffe23dc       0x54 build/obj/Drivers/CMSIS/Core_A/Source/irq_ctrl_gic.o
 .text.GIC_DisableIRQ
                0x2ffe2430       0x54 build/obj/Drivers/CMSIS/Core_A/Source/irq_ctrl_gic.o
 .text.GIC_ClearPendingIRQ
                0x2ffe2484       0x98 build/obj/Drivers/CMSIS/Core_A/Source/irq_ctrl_gic.o
 .text.GIC_SetConfiguration
                0x2ffe251c       0xac build/obj/Drivers/CMSIS/Core_A/Source/irq_ctrl_gic.o
 .text.GIC_SetPriority
                0x2ffe25c8       0xa4 build/obj/Drivers/CMSIS/Core_A/Source/irq_ctrl_gic.o
 .text.GIC_GetPriority
                0x2ffe266c       0x54 build/obj/Drivers/CMSIS/Core_A/Source/irq_ctrl_gic.o
 .text.GIC_SetInterfacePriorityMask
                0x2ffe26c0       0x34 build/obj/Drivers/CMSIS/Core_A/Source/irq_ctrl_gic.o
 .text.GIC_SetBinaryPoint
                0x2ffe26f4       0x34 build/obj/Drivers/CMSIS/Core_A/Source/irq_ctrl_gic.o
 .text.GIC_GetIRQStatus
                0x2ffe2728       0x94 build/obj/Drivers/CMSIS/Core_A/Source/irq_ctrl_gic.o
 .text.GIC_GetHighPendingIRQ
                0x2ffe27bc       0x24 build/obj/Drivers/CMSIS/Core_A/Source/irq_ctrl_gic.o
 .text.GIC_DistInit
                0x2ffe27e0       0xd4 build/obj/Drivers/CMSIS/Core_A/Source/irq_ctrl_gic.o
 .text.GIC_CPUInterfaceInit
                0x2ffe28b4       0xb8 build/obj/Drivers/CMSIS/Core_A/Source/irq_ctrl_gic.o
 .text.GIC_Enable
                0x2ffe296c       0x18 build/obj/Drivers/CMSIS/Core_A/Source/irq_ctrl_gic.o
 .text.IRQ_Initialize
                0x2ffe2984       0x58 build/obj/Drivers/CMSIS/Core_A/Source/irq_ctrl_gic.o
                0x2ffe2984                IRQ_Initialize
 .text.IRQ_SetHandler
                0x2ffe29dc       0x68 build/obj/Drivers/CMSIS/Core_A/Source/irq_ctrl_gic.o
                0x2ffe29dc                IRQ_SetHandler
 .text.IRQ_GetHandler
                0x2ffe2a44       0x68 build/obj/Drivers/CMSIS/Core_A/Source/irq_ctrl_gic.o
                0x2ffe2a44                IRQ_GetHandler
 .text.IRQ_Enable
                0x2ffe2aac       0x5c build/obj/Drivers/CMSIS/Core_A/Source/irq_ctrl_gic.o
                0x2ffe2aac                IRQ_Enable
 .text.IRQ_GetActiveIRQ
                0x2ffe2b08       0xc0 build/obj/Drivers/CMSIS/Core_A/Source/irq_ctrl_gic.o
                0x2ffe2b08                IRQ_GetActiveIRQ
 .text.IRQ_EndOfInterrupt
                0x2ffe2bc8       0x88 build/obj/Drivers/CMSIS/Core_A/Source/irq_ctrl_gic.o
                0x2ffe2bc8                IRQ_EndOfInterrupt
 .text.IRQ_ClearPending
                0x2ffe2c50       0x5c build/obj/Drivers/CMSIS/Core_A/Source/irq_ctrl_gic.o
                0x2ffe2c50                IRQ_ClearPending
 .text.IRQ_SetPriority
                0x2ffe2cac       0x64 build/obj/Drivers/CMSIS/Core_A/Source/irq_ctrl_gic.o
                0x2ffe2cac                IRQ_SetPriority
 .text.PL1_SetCounterFrequency
                0x2ffe2d10       0x3c build/obj/Drivers/STM32MP13xx_HAL_Driver/Src/stm32mp13xx_hal.o
 .text.PL1_SetLoadValue
                0x2ffe2d4c       0x3c build/obj/Drivers/STM32MP13xx_HAL_Driver/Src/stm32mp13xx_hal.o
 .text.PL1_GetCurrentPhysicalValue
                0x2ffe2d88       0x2c build/obj/Drivers/STM32MP13xx_HAL_Driver/Src/stm32mp13xx_hal.o
 .text.HAL_Init
                0x2ffe2db4       0x48 build/obj/Drivers/STM32MP13xx_HAL_Driver/Src/stm32mp13xx_hal.o
                0x2ffe2db4                HAL_Init
 .text.HAL_MspInit
                0x2ffe2dfc       0x18 build/obj/Drivers/STM32MP13xx_HAL_Driver/Src/stm32mp13xx_hal.o
                0x2ffe2dfc                HAL_MspInit
 .text.HAL_InitTick
                0x2ffe2e14       0x34 build/obj/Drivers/STM32MP13xx_HAL_Driver/Src/stm32mp13xx_hal.o
                0x2ffe2e14                HAL_InitTick
 .text.HAL_IncTick
                0x2ffe2e48       0x44 build/obj/Drivers/STM32MP13xx_HAL_Driver/Src/stm32mp13xx_hal.o
                0x2ffe2e48                HAL_IncTick
 .text.HAL_GetTick
                0x2ffe2e8c       0x60 build/obj/Drivers/STM32MP13xx_HAL_Driver/Src/stm32mp13xx_hal.o
                0x2ffe2e8c                HAL_GetTick
 .text.HAL_Delay
                0x2ffe2eec       0x78 build/obj/Drivers/STM32MP13xx_HAL_Driver/Src/stm32mp13xx_hal.o
                0x2ffe2eec                HAL_Delay
 .text.HAL_GPIO_Init
                0x2ffe2f64      0x580 build/obj/Drivers/STM32MP13xx_HAL_Driver/Src/stm32mp13xx_hal_gpio.o
                0x2ffe2f64                HAL_GPIO_Init
 .text.HAL_GPIO_WritePin
                0x2ffe34e4       0x5c build/obj/Drivers/STM32MP13xx_HAL_Driver/Src/stm32mp13xx_hal_gpio.o
                0x2ffe34e4                HAL_GPIO_WritePin
 .text.HAL_GPIO_TogglePin
                0x2ffe3540       0x60 build/obj/Drivers/STM32MP13xx_HAL_Driver/Src/stm32mp13xx_hal_gpio.o
                0x2ffe3540                HAL_GPIO_TogglePin
 .text.HAL_I2C_Init
                0x2ffe35a0      0x220 build/obj/Drivers/STM32MP13xx_HAL_Driver/Src/stm32mp13xx_hal_i2c.o
                0x2ffe35a0                HAL_I2C_Init
 .text.HAL_I2C_MspInit
                0x2ffe37c0       0x20 build/obj/Drivers/STM32MP13xx_HAL_Driver/Src/stm32mp13xx_hal_i2c.o
                0x2ffe37c0                HAL_I2C_MspInit
 .text.HAL_I2C_Mem_Write
                0x2ffe37e0      0x3e0 build/obj/Drivers/STM32MP13xx_HAL_Driver/Src/stm32mp13xx_hal_i2c.o
                0x2ffe37e0                HAL_I2C_Mem_Write
 .text.HAL_I2C_Mem_Read
                0x2ffe3bc0      0x3f8 build/obj/Drivers/STM32MP13xx_HAL_Driver/Src/stm32mp13xx_hal_i2c.o
                0x2ffe3bc0                HAL_I2C_Mem_Read
 .text.HAL_I2C_IsDeviceReady
                0x2ffe3fb8      0x31c build/obj/Drivers/STM32MP13xx_HAL_Driver/Src/stm32mp13xx_hal_i2c.o
                0x2ffe3fb8                HAL_I2C_IsDeviceReady
 .text.HAL_I2C_GetState
                0x2ffe42d4       0x2c build/obj/Drivers/STM32MP13xx_HAL_Driver/Src/stm32mp13xx_hal_i2c.o
                0x2ffe42d4                HAL_I2C_GetState
 .text.HAL_I2C_GetError
                0x2ffe4300       0x28 build/obj/Drivers/STM32MP13xx_HAL_Driver/Src/stm32mp13xx_hal_i2c.o
                0x2ffe4300                HAL_I2C_GetError
 .text.I2C_RequestMemoryWrite
                0x2ffe4328      0x134 build/obj/Drivers/STM32MP13xx_HAL_Driver/Src/stm32mp13xx_hal_i2c.o
 .text.I2C_RequestMemoryRead
                0x2ffe445c      0x134 build/obj/Drivers/STM32MP13xx_HAL_Driver/Src/stm32mp13xx_hal_i2c.o
 .text.I2C_Flush_TXDR
                0x2ffe4590       0x7c build/obj/Drivers/STM32MP13xx_HAL_Driver/Src/stm32mp13xx_hal_i2c.o
 .text.I2C_WaitOnFlagUntilTimeout
                0x2ffe460c      0x13c build/obj/Drivers/STM32MP13xx_HAL_Driver/Src/stm32mp13xx_hal_i2c.o
 .text.I2C_WaitOnTXISFlagUntilTimeout
                0x2ffe4748       0xf4 build/obj/Drivers/STM32MP13xx_HAL_Driver/Src/stm32mp13xx_hal_i2c.o
 .text.I2C_WaitOnSTOPFlagUntilTimeout
                0x2ffe483c       0xe8 build/obj/Drivers/STM32MP13xx_HAL_Driver/Src/stm32mp13xx_hal_i2c.o
 .text.I2C_IsErrorOccurred
                0x2ffe4924      0x2dc build/obj/Drivers/STM32MP13xx_HAL_Driver/Src/stm32mp13xx_hal_i2c.o
 .text.I2C_TransferConfig
                0x2ffe4c00       0xa4 build/obj/Drivers/STM32MP13xx_HAL_Driver/Src/stm32mp13xx_hal_i2c.o
 .text.HAL_RCC_DeInit
                0x2ffe4ca4      0x5ac build/obj/Drivers/STM32MP13xx_HAL_Driver/Src/stm32mp13xx_hal_rcc.o
                0x2ffe4ca4                HAL_RCC_DeInit
 .text.HAL_RCC_OscConfig
                0x2ffe5250      0x918 build/obj/Drivers/STM32MP13xx_HAL_Driver/Src/stm32mp13xx_hal_rcc.o
                0x2ffe5250                HAL_RCC_OscConfig
 .text.HAL_RCC_HSEConfig
                0x2ffe5b68      0x130 build/obj/Drivers/STM32MP13xx_HAL_Driver/Src/stm32mp13xx_hal_rcc.o
                0x2ffe5b68                HAL_RCC_HSEConfig
 .text.HAL_RCC_LSEConfig
                0x2ffe5c98      0x148 build/obj/Drivers/STM32MP13xx_HAL_Driver/Src/stm32mp13xx_hal_rcc.o
                0x2ffe5c98                HAL_RCC_LSEConfig
 .text.RCC_PLL1_Config
                0x2ffe5de0      0x42c build/obj/Drivers/STM32MP13xx_HAL_Driver/Src/stm32mp13xx_hal_rcc.o
                0x2ffe5de0                RCC_PLL1_Config
 .text.HAL_RCC_ClockConfig
                0x2ffe620c      0x3ac build/obj/Drivers/STM32MP13xx_HAL_Driver/Src/stm32mp13xx_hal_rcc.o
                0x2ffe620c                HAL_RCC_ClockConfig
 .text.RCC_MPUConfig
                0x2ffe65b8      0x17c build/obj/Drivers/STM32MP13xx_HAL_Driver/Src/stm32mp13xx_hal_rcc.o
                0x2ffe65b8                RCC_MPUConfig
 .text.RCC_AXISSConfig
                0x2ffe6734      0x1d0 build/obj/Drivers/STM32MP13xx_HAL_Driver/Src/stm32mp13xx_hal_rcc.o
                0x2ffe6734                RCC_AXISSConfig
 .text.RCC_MLAHBConfig
                0x2ffe6904      0x198 build/obj/Drivers/STM32MP13xx_HAL_Driver/Src/stm32mp13xx_hal_rcc.o
                0x2ffe6904                RCC_MLAHBConfig
 .text.HAL_RCC_GetPLL1ClockFreq
                0x2ffe6a9c      0x274 build/obj/Drivers/STM32MP13xx_HAL_Driver/Src/stm32mp13xx_hal_rcc.o
                0x2ffe6a9c                HAL_RCC_GetPLL1ClockFreq
 .text.HAL_RCC_GetPLL2ClockFreq
                0x2ffe6d10      0x274 build/obj/Drivers/STM32MP13xx_HAL_Driver/Src/stm32mp13xx_hal_rcc.o
                0x2ffe6d10                HAL_RCC_GetPLL2ClockFreq
 .text.HAL_RCC_GetPLL3ClockFreq
                0x2ffe6f84      0x280 build/obj/Drivers/STM32MP13xx_HAL_Driver/Src/stm32mp13xx_hal_rcc.o
                0x2ffe6f84                HAL_RCC_GetPLL3ClockFreq
 .text.HAL_RCC_GetPLL4ClockFreq
                0x2ffe7204      0x29c build/obj/Drivers/STM32MP13xx_HAL_Driver/Src/stm32mp13xx_hal_rcc.o
                0x2ffe7204                HAL_RCC_GetPLL4ClockFreq
 .text.HAL_RCC_GetPCLK1Freq
                0x2ffe74a0       0x4c build/obj/Drivers/STM32MP13xx_HAL_Driver/Src/stm32mp13xx_hal_rcc.o
                0x2ffe74a0                HAL_RCC_GetPCLK1Freq
 .text.HAL_RCC_GetPCLK2Freq
                0x2ffe74ec       0x4c build/obj/Drivers/STM32MP13xx_HAL_Driver/Src/stm32mp13xx_hal_rcc.o
                0x2ffe74ec                HAL_RCC_GetPCLK2Freq
 .text.HAL_RCC_GetPCLK6Freq
                0x2ffe7538       0x4c build/obj/Drivers/STM32MP13xx_HAL_Driver/Src/stm32mp13xx_hal_rcc.o
                0x2ffe7538                HAL_RCC_GetPCLK6Freq
 .text.HAL_RCC_GetPCLK5Freq
                0x2ffe7584       0x4c build/obj/Drivers/STM32MP13xx_HAL_Driver/Src/stm32mp13xx_hal_rcc.o
                0x2ffe7584                HAL_RCC_GetPCLK5Freq
 .text.HAL_RCC_GetACLKFreq
                0x2ffe75d0       0x58 build/obj/Drivers/STM32MP13xx_HAL_Driver/Src/stm32mp13xx_hal_rcc.o
                0x2ffe75d0                HAL_RCC_GetACLKFreq
 .text.HAL_RCC_GetMLAHBFreq
                0x2ffe7628       0x4c build/obj/Drivers/STM32MP13xx_HAL_Driver/Src/stm32mp13xx_hal_rcc.o
                0x2ffe7628                HAL_RCC_GetMLAHBFreq
 .text.HAL_RCC_GetSystemCoreClockFreq
                0x2ffe7674       0x18 build/obj/Drivers/STM32MP13xx_HAL_Driver/Src/stm32mp13xx_hal_rcc.o
                0x2ffe7674                HAL_RCC_GetSystemCoreClockFreq
 .text.HAL_RCC_GetMPUSSFreq
                0x2ffe768c      0x12c build/obj/Drivers/STM32MP13xx_HAL_Driver/Src/stm32mp13xx_hal_rcc.o
                0x2ffe768c                HAL_RCC_GetMPUSSFreq
 .text.HAL_RCC_GetAXISSFreq
                0x2ffe77b8       0xc4 build/obj/Drivers/STM32MP13xx_HAL_Driver/Src/stm32mp13xx_hal_rcc.o
                0x2ffe77b8                HAL_RCC_GetAXISSFreq
 .text.HAL_RCC_GetMLAHBSSFreq
                0x2ffe787c       0xa8 build/obj/Drivers/STM32MP13xx_HAL_Driver/Src/stm32mp13xx_hal_rcc.o
                0x2ffe787c                HAL_RCC_GetMLAHBSSFreq
 .text.RCCEx_PLL2_Config
                0x2ffe7924      0x424 build/obj/Drivers/STM32MP13xx_HAL_Driver/Src/stm32mp13xx_hal_rcc_ex.o
                0x2ffe7924                RCCEx_PLL2_Config
 .text.RCCEx_PLL3_Config
                0x2ffe7d48      0x3d8 build/obj/Drivers/STM32MP13xx_HAL_Driver/Src/stm32mp13xx_hal_rcc_ex.o
                0x2ffe7d48                RCCEx_PLL3_Config
 .text.RCCEx_PLL4_Config
                0x2ffe8120      0x3a4 build/obj/Drivers/STM32MP13xx_HAL_Driver/Src/stm32mp13xx_hal_rcc_ex.o
                0x2ffe8120                RCCEx_PLL4_Config
 .text.HAL_RCCEx_PeriphCLKConfig
                0x2ffe84c4     0x2184 build/obj/Drivers/STM32MP13xx_HAL_Driver/Src/stm32mp13xx_hal_rcc_ex.o
                0x2ffe84c4                HAL_RCCEx_PeriphCLKConfig
 .text.HAL_UART_Init
                0x2ffea648      0x110 build/obj/Drivers/STM32MP13xx_HAL_Driver/Src/stm32mp13xx_hal_uart.o
                0x2ffea648                HAL_UART_Init
 .text.HAL_UART_Transmit
                0x2ffea758      0x228 build/obj/Drivers/STM32MP13xx_HAL_Driver/Src/stm32mp13xx_hal_uart.o
                0x2ffea758                HAL_UART_Transmit
 .text.HAL_UART_Receive
                0x2ffea980      0x2ec build/obj/Drivers/STM32MP13xx_HAL_Driver/Src/stm32mp13xx_hal_uart.o
                0x2ffea980                HAL_UART_Receive
 .text.UART_SetConfig
                0x2ffeac6c      0xa78 build/obj/Drivers/STM32MP13xx_HAL_Driver/Src/stm32mp13xx_hal_uart.o
                0x2ffeac6c                UART_SetConfig
 .text.UART_AdvFeatureConfig
                0x2ffeb6e4      0x238 build/obj/Drivers/STM32MP13xx_HAL_Driver/Src/stm32mp13xx_hal_uart.o
                0x2ffeb6e4                UART_AdvFeatureConfig
 .text.UART_CheckIdleState
                0x2ffeb91c      0x184 build/obj/Drivers/STM32MP13xx_HAL_Driver/Src/stm32mp13xx_hal_uart.o
                0x2ffeb91c                UART_CheckIdleState
 .text.UART_WaitOnFlagUntilTimeout
                0x2ffebaa0      0x178 build/obj/Drivers/STM32MP13xx_HAL_Driver/Src/stm32mp13xx_hal_uart.o
                0x2ffebaa0                UART_WaitOnFlagUntilTimeout
 .text.UART_EndRxTransfer
                0x2ffebc18       0xa8 build/obj/Drivers/STM32MP13xx_HAL_Driver/Src/stm32mp13xx_hal_uart.o
 .text.HAL_UARTEx_DisableFifoMode
                0x2ffebcc0       0xc0 build/obj/Drivers/STM32MP13xx_HAL_Driver/Src/stm32mp13xx_hal_uart_ex.o
                0x2ffebcc0                HAL_UARTEx_DisableFifoMode
 .text.HAL_UARTEx_SetTxFifoThreshold
                0x2ffebd80       0xd4 build/obj/Drivers/STM32MP13xx_HAL_Driver/Src/stm32mp13xx_hal_uart_ex.o
                0x2ffebd80                HAL_UARTEx_SetTxFifoThreshold
 .text.HAL_UARTEx_SetRxFifoThreshold
                0x2ffebe54       0xd4 build/obj/Drivers/STM32MP13xx_HAL_Driver/Src/stm32mp13xx_hal_uart_ex.o
                0x2ffebe54                HAL_UARTEx_SetRxFifoThreshold
 .text.UARTEx_SetNbDataToProcess
                0x2ffebf28      0x104 build/obj/Drivers/STM32MP13xx_HAL_Driver/Src/stm32mp13xx_hal_uart_ex.o
 .text.BSP_Error_Handler
                0x2ffec02c       0x24 build/obj/Drivers/STM32MP13xx_DISCO/stm32mp13xx_disco.o
                0x2ffec02c                BSP_Error_Handler
 .text.BSP_LED_Init
                0x2ffec050       0xd8 build/obj/Drivers/STM32MP13xx_DISCO/stm32mp13xx_disco.o
                0x2ffec050                BSP_LED_Init
 .text.BSP_LED_Off
                0x2ffec128       0x78 build/obj/Drivers/STM32MP13xx_DISCO/stm32mp13xx_disco.o
                0x2ffec128                BSP_LED_Off
 .text.BSP_LED_Toggle
                0x2ffec1a0       0x74 build/obj/Drivers/STM32MP13xx_DISCO/stm32mp13xx_disco.o
                0x2ffec1a0                BSP_LED_Toggle
 .text.BSP_I2C4_Init
                0x2ffec214       0x6c build/obj/Drivers/STM32MP13xx_DISCO/stm32mp13xx_disco_bus.o
                0x2ffec214                BSP_I2C4_Init
 .text.MX_I2C4_Init
                0x2ffec280       0x8c build/obj/Drivers/STM32MP13xx_DISCO/stm32mp13xx_disco_bus.o
                0x2ffec280                MX_I2C4_Init
 .text.BSP_I2C4_WriteReg
                0x2ffec30c       0x9c build/obj/Drivers/STM32MP13xx_DISCO/stm32mp13xx_disco_bus.o
                0x2ffec30c                BSP_I2C4_WriteReg
 .text.BSP_I2C4_ReadReg
                0x2ffec3a8       0x9c build/obj/Drivers/STM32MP13xx_DISCO/stm32mp13xx_disco_bus.o
                0x2ffec3a8                BSP_I2C4_ReadReg
 .text.BSP_I2C4_IsReady
                0x2ffec444       0x60 build/obj/Drivers/STM32MP13xx_DISCO/stm32mp13xx_disco_bus.o
                0x2ffec444                BSP_I2C4_IsReady
 .text.I2C4_MspInit
                0x2ffec4a4       0xe0 build/obj/Drivers/STM32MP13xx_DISCO/stm32mp13xx_disco_bus.o
 .text.I2C4_WriteReg
                0x2ffec584       0x80 build/obj/Drivers/STM32MP13xx_DISCO/stm32mp13xx_disco_bus.o
 .text.I2C4_ReadReg
                0x2ffec604       0x80 build/obj/Drivers/STM32MP13xx_DISCO/stm32mp13xx_disco_bus.o
 .text.STPMU1_Get_Regulator_Data
                0x2ffec684       0x80 build/obj/Drivers/STM32MP13xx_DISCO/stm32mp13xx_disco_stpmic1.o
 .text.STPMU1_Voltage_Find_Index
                0x2ffec704       0x9c build/obj/Drivers/STM32MP13xx_DISCO/stm32mp13xx_disco_stpmic1.o
 .text.STPMU1_Enable_Interrupt
                0x2ffec7a0       0x8c build/obj/Drivers/STM32MP13xx_DISCO/stm32mp13xx_disco_stpmic1.o
                0x2ffec7a0                STPMU1_Enable_Interrupt
 .text.STPMU1_Regulator_Enable
                0x2ffec82c       0x48 build/obj/Drivers/STM32MP13xx_DISCO/stm32mp13xx_disco_stpmic1.o
                0x2ffec82c                STPMU1_Regulator_Enable
 .text.STPMU1_Regulator_Disable
                0x2ffec874       0x48 build/obj/Drivers/STM32MP13xx_DISCO/stm32mp13xx_disco_stpmic1.o
                0x2ffec874                STPMU1_Regulator_Disable
 .text.STPMU1_Regulator_Voltage_Set
                0x2ffec8bc       0x78 build/obj/Drivers/STM32MP13xx_DISCO/stm32mp13xx_disco_stpmic1.o
                0x2ffec8bc                STPMU1_Regulator_Voltage_Set
 .text.STPMU1_Register_Read
                0x2ffec934       0x64 build/obj/Drivers/STM32MP13xx_DISCO/stm32mp13xx_disco_stpmic1.o
                0x2ffec934                STPMU1_Register_Read
 .text.STPMU1_Register_Write
                0x2ffec998       0xa8 build/obj/Drivers/STM32MP13xx_DISCO/stm32mp13xx_disco_stpmic1.o
                0x2ffec998                STPMU1_Register_Write
 .text.STPMU1_Register_Update
                0x2ffeca40       0x90 build/obj/Drivers/STM32MP13xx_DISCO/stm32mp13xx_disco_stpmic1.o
                0x2ffeca40                STPMU1_Register_Update
 .text.BSP_PMIC_MspInit
                0x2ffecad0       0x88 build/obj/Drivers/STM32MP13xx_DISCO/stm32mp13xx_disco_stpmic1.o
 .text.BSP_PMIC_Is_Device_Ready
                0x2ffecb58       0x44 build/obj/Drivers/STM32MP13xx_DISCO/stm32mp13xx_disco_stpmic1.o
                0x2ffecb58                BSP_PMIC_Is_Device_Ready
 .text.BSP_PMIC_Init
                0x2ffecb9c       0x80 build/obj/Drivers/STM32MP13xx_DISCO/stm32mp13xx_disco_stpmic1.o
                0x2ffecb9c                BSP_PMIC_Init
 .text.BSP_PMIC_InitRegulators
                0x2ffecc1c       0xfc build/obj/Drivers/STM32MP13xx_DISCO/stm32mp13xx_disco_stpmic1.o
                0x2ffecc1c                BSP_PMIC_InitRegulators
 .text          0x2ffecd18       0x30 c:/program files (x86)/arm gnu toolchain arm-none-eabi/12.3 rel1/bin/../lib/gcc/arm-none-eabi/12.3.1/thumb/v7ve+simd/hard\libgcc.a(_aeabi_uldivmod.o)
                0x2ffecd18                __aeabi_uldivmod
 .text.__udivmoddi4
                0x2ffecd48      0x370 c:/program files (x86)/arm gnu toolchain arm-none-eabi/12.3 rel1/bin/../lib/gcc/arm-none-eabi/12.3.1/thumb/v7ve+simd/hard\libgcc.a(_udivmoddi4.o)
                0x2ffecd48                __udivmoddi4
 .text          0x2ffed0b8        0x4 c:/program files (x86)/arm gnu toolchain arm-none-eabi/12.3 rel1/bin/../lib/gcc/arm-none-eabi/12.3.1/thumb/v7ve+simd/hard\libgcc.a(_dvmd_tls.o)
                0x2ffed0b8                __aeabi_idiv0
                0x2ffed0b8                __aeabi_ldiv0
 .text.printf   0x2ffed0bc       0x24 c:/program files (x86)/arm gnu toolchain arm-none-eabi/12.3 rel1/bin/../lib/gcc/arm-none-eabi/12.3.1/thumb/v7ve+simd/hard\libc_nano.a(libc_a-printf.o)
                0x2ffed0bc                iprintf
                0x2ffed0bc                printf
 .text.memset   0x2ffed0e0       0x10 c:/program files (x86)/arm gnu toolchain arm-none-eabi/12.3 rel1/bin/../lib/gcc/arm-none-eabi/12.3.1/thumb/v7ve+simd/hard\libc_nano.a(libc_a-memset.o)
                0x2ffed0e0                memset
 .text.__libc_init_array
                0x2ffed0f0       0x48 c:/program files (x86)/arm gnu toolchain arm-none-eabi/12.3 rel1/bin/../lib/gcc/arm-none-eabi/12.3.1/thumb/v7ve+simd/hard\libc_nano.a(libc_a-init.o)
                0x2ffed0f0                __libc_init_array
 .text.__sfputc_r
                0x2ffed138       0x2e c:/program files (x86)/arm gnu toolchain arm-none-eabi/12.3 rel1/bin/../lib/gcc/arm-none-eabi/12.3.1/thumb/v7ve+simd/hard\libc_nano.a(libc_a-nano-vfprintf.o)
 .text.__sfputs_r
                0x2ffed166       0x24 c:/program files (x86)/arm gnu toolchain arm-none-eabi/12.3 rel1/bin/../lib/gcc/arm-none-eabi/12.3.1/thumb/v7ve+simd/hard\libc_nano.a(libc_a-nano-vfprintf.o)
                0x2ffed166                __sfputs_r
 *fill*         0x2ffed18a        0x2 
 .text._vfprintf_r
                0x2ffed18c      0x230 c:/program files (x86)/arm gnu toolchain arm-none-eabi/12.3 rel1/bin/../lib/gcc/arm-none-eabi/12.3.1/thumb/v7ve+simd/hard\libc_nano.a(libc_a-nano-vfprintf.o)
                0x2ffed18c                _vfprintf_r
                0x2ffed18c                _vfiprintf_r
 .text._printf_common
                0x2ffed3bc       0xe4 c:/program files (x86)/arm gnu toolchain arm-none-eabi/12.3 rel1/bin/../lib/gcc/arm-none-eabi/12.3.1/thumb/v7ve+simd/hard\libc_nano.a(libc_a-nano-vfprintf_i.o)
                0x2ffed3bc                _printf_common
 .text._printf_i
                0x2ffed4a0      0x258 c:/program files (x86)/arm gnu toolchain arm-none-eabi/12.3 rel1/bin/../lib/gcc/arm-none-eabi/12.3.1/thumb/v7ve+simd/hard\libc_nano.a(libc_a-nano-vfprintf_i.o)
                0x2ffed4a0                _printf_i
 .text.std      0x2ffed6f8       0x6c c:/program files (x86)/arm gnu toolchain arm-none-eabi/12.3 rel1/bin/../lib/gcc/arm-none-eabi/12.3.1/thumb/v7ve+simd/hard\libc_nano.a(libc_a-findfp.o)
 .text.stdio_exit_handler
                0x2ffed764       0x18 c:/program files (x86)/arm gnu toolchain arm-none-eabi/12.3 rel1/bin/../lib/gcc/arm-none-eabi/12.3.1/thumb/v7ve+simd/hard\libc_nano.a(libc_a-findfp.o)
 .text.cleanup_stdio
                0x2ffed77c       0x40 c:/program files (x86)/arm gnu toolchain arm-none-eabi/12.3 rel1/bin/../lib/gcc/arm-none-eabi/12.3.1/thumb/v7ve+simd/hard\libc_nano.a(libc_a-findfp.o)
 .text.global_stdio_init.part.0
                0x2ffed7bc       0x3c c:/program files (x86)/arm gnu toolchain arm-none-eabi/12.3 rel1/bin/../lib/gcc/arm-none-eabi/12.3.1/thumb/v7ve+simd/hard\libc_nano.a(libc_a-findfp.o)
 .text.__sfp_lock_acquire
                0x2ffed7f8        0xc c:/program files (x86)/arm gnu toolchain arm-none-eabi/12.3 rel1/bin/../lib/gcc/arm-none-eabi/12.3.1/thumb/v7ve+simd/hard\libc_nano.a(libc_a-findfp.o)
                0x2ffed7f8                __sfp_lock_acquire
 .text.__sfp_lock_release
                0x2ffed804        0xc c:/program files (x86)/arm gnu toolchain arm-none-eabi/12.3 rel1/bin/../lib/gcc/arm-none-eabi/12.3.1/thumb/v7ve+simd/hard\libc_nano.a(libc_a-findfp.o)
                0x2ffed804                __sfp_lock_release
 .text.__sinit  0x2ffed810       0x30 c:/program files (x86)/arm gnu toolchain arm-none-eabi/12.3 rel1/bin/../lib/gcc/arm-none-eabi/12.3.1/thumb/v7ve+simd/hard\libc_nano.a(libc_a-findfp.o)
                0x2ffed810                __sinit
 .text._fwalk_sglue
                0x2ffed840       0x3c c:/program files (x86)/arm gnu toolchain arm-none-eabi/12.3 rel1/bin/../lib/gcc/arm-none-eabi/12.3.1/thumb/v7ve+simd/hard\libc_nano.a(libc_a-fwalk.o)
                0x2ffed840                _fwalk_sglue
 .text.__sread  0x2ffed87c       0x22 c:/program files (x86)/arm gnu toolchain arm-none-eabi/12.3 rel1/bin/../lib/gcc/arm-none-eabi/12.3.1/thumb/v7ve+simd/hard\libc_nano.a(libc_a-stdio.o)
                0x2ffed87c                __sread
 .text.__swrite
                0x2ffed89e       0x38 c:/program files (x86)/arm gnu toolchain arm-none-eabi/12.3 rel1/bin/../lib/gcc/arm-none-eabi/12.3.1/thumb/v7ve+simd/hard\libc_nano.a(libc_a-stdio.o)
                0x2ffed89e                __swrite
 .text.__sseek  0x2ffed8d6       0x24 c:/program files (x86)/arm gnu toolchain arm-none-eabi/12.3 rel1/bin/../lib/gcc/arm-none-eabi/12.3.1/thumb/v7ve+simd/hard\libc_nano.a(libc_a-stdio.o)
                0x2ffed8d6                __sseek
 .text.__sclose
                0x2ffed8fa        0x8 c:/program files (x86)/arm gnu toolchain arm-none-eabi/12.3 rel1/bin/../lib/gcc/arm-none-eabi/12.3.1/thumb/v7ve+simd/hard\libc_nano.a(libc_a-stdio.o)
                0x2ffed8fa                __sclose
 .text.__swbuf_r
                0x2ffed902       0x7c c:/program files (x86)/arm gnu toolchain arm-none-eabi/12.3 rel1/bin/../lib/gcc/arm-none-eabi/12.3.1/thumb/v7ve+simd/hard\libc_nano.a(libc_a-wbuf.o)
                0x2ffed902                __swbuf_r
 *fill*         0x2ffed97e        0x2 
 .text.__swsetup_r
                0x2ffed980       0xac c:/program files (x86)/arm gnu toolchain arm-none-eabi/12.3 rel1/bin/../lib/gcc/arm-none-eabi/12.3.1/thumb/v7ve+simd/hard\libc_nano.a(libc_a-wsetup.o)
                0x2ffed980                __swsetup_r
 .text._close_r
                0x2ffeda2c       0x20 c:/program files (x86)/arm gnu toolchain arm-none-eabi/12.3 rel1/bin/../lib/gcc/arm-none-eabi/12.3.1/thumb/v7ve+simd/hard\libc_nano.a(libc_a-closer.o)
                0x2ffeda2c                _close_r
 .text._lseek_r
                0x2ffeda4c       0x24 c:/program files (x86)/arm gnu toolchain arm-none-eabi/12.3 rel1/bin/../lib/gcc/arm-none-eabi/12.3.1/thumb/v7ve+simd/hard\libc_nano.a(libc_a-lseekr.o)
                0x2ffeda4c                _lseek_r
 .text._read_r  0x2ffeda70       0x24 c:/program files (x86)/arm gnu toolchain arm-none-eabi/12.3 rel1/bin/../lib/gcc/arm-none-eabi/12.3.1/thumb/v7ve+simd/hard\libc_nano.a(libc_a-readr.o)
                0x2ffeda70                _read_r
 .text._write_r
                0x2ffeda94       0x24 c:/program files (x86)/arm gnu toolchain arm-none-eabi/12.3 rel1/bin/../lib/gcc/arm-none-eabi/12.3.1/thumb/v7ve+simd/hard\libc_nano.a(libc_a-writer.o)
                0x2ffeda94                _write_r
 .text.__retarget_lock_init_recursive
                0x2ffedab8        0x2 c:/program files (x86)/arm gnu toolchain arm-none-eabi/12.3 rel1/bin/../lib/gcc/arm-none-eabi/12.3.1/thumb/v7ve+simd/hard\libc_nano.a(libc_a-lock.o)
                0x2ffedab8                __retarget_lock_init_recursive
 .text.__retarget_lock_acquire_recursive
                0x2ffedaba        0x2 c:/program files (x86)/arm gnu toolchain arm-none-eabi/12.3 rel1/bin/../lib/gcc/arm-none-eabi/12.3.1/thumb/v7ve+simd/hard\libc_nano.a(libc_a-lock.o)
                0x2ffedaba                __retarget_lock_acquire_recursive
 .text.__retarget_lock_release_recursive
                0x2ffedabc        0x2 c:/program files (x86)/arm gnu toolchain arm-none-eabi/12.3 rel1/bin/../lib/gcc/arm-none-eabi/12.3.1/thumb/v7ve+simd/hard\libc_nano.a(libc_a-lock.o)
                0x2ffedabc                __retarget_lock_release_recursive
 *fill*         0x2ffedabe        0x2 
 .text          0x2ffedac0       0xe8 c:/program files (x86)/arm gnu toolchain arm-none-eabi/12.3 rel1/bin/../lib/gcc/arm-none-eabi/12.3.1/thumb/v7ve+simd/hard\libc_nano.a(libc_a-memchr.o)
                0x2ffedac0                memchr
 .text._free_r  0x2ffedba8       0x94 c:/program files (x86)/arm gnu toolchain arm-none-eabi/12.3 rel1/bin/../lib/gcc/arm-none-eabi/12.3.1/thumb/v7ve+simd/hard\libc_nano.a(libc_a-freer.o)
                0x2ffedba8                _free_r
 .text.sbrk_aligned
                0x2ffedc3c       0x44 c:/program files (x86)/arm gnu toolchain arm-none-eabi/12.3 rel1/bin/../lib/gcc/arm-none-eabi/12.3.1/thumb/v7ve+simd/hard\libc_nano.a(libc_a-mallocr.o)
 .text._malloc_r
                0x2ffedc80       0xfc c:/program files (x86)/arm gnu toolchain arm-none-eabi/12.3 rel1/bin/../lib/gcc/arm-none-eabi/12.3.1/thumb/v7ve+simd/hard\libc_nano.a(libc_a-mallocr.o)
                0x2ffedc80                _malloc_r
 .text.__malloc_lock
                0x2ffedd7c        0xc c:/program files (x86)/arm gnu toolchain arm-none-eabi/12.3 rel1/bin/../lib/gcc/arm-none-eabi/12.3.1/thumb/v7ve+simd/hard\libc_nano.a(libc_a-mlock.o)
                0x2ffedd7c                __malloc_lock
 .text.__malloc_unlock
                0x2ffedd88        0xc c:/program files (x86)/arm gnu toolchain arm-none-eabi/12.3 rel1/bin/../lib/gcc/arm-none-eabi/12.3.1/thumb/v7ve+simd/hard\libc_nano.a(libc_a-mlock.o)
                0x2ffedd88                __malloc_unlock
 .text.__sflush_r
                0x2ffedd94      0x108 c:/program files (x86)/arm gnu toolchain arm-none-eabi/12.3 rel1/bin/../lib/gcc/arm-none-eabi/12.3.1/thumb/v7ve+simd/hard\libc_nano.a(libc_a-fflush.o)
                0x2ffedd94                __sflush_r
 .text._fflush_r
                0x2ffede9c       0x50 c:/program files (x86)/arm gnu toolchain arm-none-eabi/12.3 rel1/bin/../lib/gcc/arm-none-eabi/12.3.1/thumb/v7ve+simd/hard\libc_nano.a(libc_a-fflush.o)
                0x2ffede9c                _fflush_r
 .text.__swhatbuf_r
                0x2ffedeec       0x4a c:/program files (x86)/arm gnu toolchain arm-none-eabi/12.3 rel1/bin/../lib/gcc/arm-none-eabi/12.3.1/thumb/v7ve+simd/hard\libc_nano.a(libc_a-makebuf.o)
                0x2ffedeec                __swhatbuf_r
 .text.__smakebuf_r
                0x2ffedf36       0x78 c:/program files (x86)/arm gnu toolchain arm-none-eabi/12.3 rel1/bin/../lib/gcc/arm-none-eabi/12.3.1/thumb/v7ve+simd/hard\libc_nano.a(libc_a-makebuf.o)
                0x2ffedf36                __smakebuf_r
 *fill*         0x2ffedfae        0x2 
 .text._fstat_r
                0x2ffedfb0       0x24 c:/program files (x86)/arm gnu toolchain arm-none-eabi/12.3 rel1/bin/../lib/gcc/arm-none-eabi/12.3.1/thumb/v7ve+simd/hard\libc_nano.a(libc_a-fstatr.o)
                0x2ffedfb0                _fstat_r
 .text._isatty_r
                0x2ffedfd4       0x20 c:/program files (x86)/arm gnu toolchain arm-none-eabi/12.3 rel1/bin/../lib/gcc/arm-none-eabi/12.3.1/thumb/v7ve+simd/hard\libc_nano.a(libc_a-isattyr.o)
                0x2ffedfd4                _isatty_r
 .text._sbrk_r  0x2ffedff4       0x20 c:/program files (x86)/arm gnu toolchain arm-none-eabi/12.3 rel1/bin/../lib/gcc/arm-none-eabi/12.3.1/thumb/v7ve+simd/hard\libc_nano.a(libc_a-sbrkr.o)
                0x2ffedff4                _sbrk_r
 .text._sbrk    0x2ffee014       0x20 c:/program files (x86)/arm gnu toolchain arm-none-eabi/12.3 rel1/bin/../lib/gcc/arm-none-eabi/12.3.1/thumb/v7ve+simd/hard\libnosys.a(sbrk.o)
                0x2ffee014                _sbrk
 *(.init)
 *(.fini)
                0x2ffee034                        __TEXT_END_UNALIGNED__ = .
                0x2ffee034                        __TEXT_END__ = .
                0x2ffef000                        . = NEXT (0x1000)
 *fill*         0x2ffee034      0xfcc 
                0x2ffef000                        __RO_START__ = .
 *(.rodata*)
 .rodata        0x2ffef000       0x11 build/obj/Src/main.o
 *fill*         0x2ffef011        0x3 
 .rodata.UARTPrescTable
                0x2ffef014       0x18 build/obj/Drivers/STM32MP13xx_HAL_Driver/Src/stm32mp13xx_hal_uart.o
                0x2ffef014                UARTPrescTable
 .rodata.numerator.1
                0x2ffef02c        0x8 build/obj/Drivers/STM32MP13xx_HAL_Driver/Src/stm32mp13xx_hal_uart_ex.o
 .rodata.denominator.0
                0x2ffef034        0x8 build/obj/Drivers/STM32MP13xx_HAL_Driver/Src/stm32mp13xx_hal_uart_ex.o
 .rodata.LED_PIN
                0x2ffef03c        0x4 build/obj/Drivers/STM32MP13xx_DISCO/stm32mp13xx_disco.o
 .rodata._vfprintf_r.str1.1
                0x2ffef040       0x11 c:/program files (x86)/arm gnu toolchain arm-none-eabi/12.3 rel1/bin/../lib/gcc/arm-none-eabi/12.3.1/thumb/v7ve+simd/hard\libc_nano.a(libc_a-nano-vfprintf.o)
 .rodata._printf_i.str1.1
                0x2ffef051       0x22 c:/program files (x86)/arm gnu toolchain arm-none-eabi/12.3 rel1/bin/../lib/gcc/arm-none-eabi/12.3.1/thumb/v7ve+simd/hard\libc_nano.a(libc_a-nano-vfprintf_i.o)
                0x2ffef073                        __RO_END_UNALIGNED__ = .
                0x2fff0000                        . = NEXT (0x1000)
 *fill*         0x2ffef073      0xf8d 
                0x2fff0000                        __RO_END__ = .

.glue_7         0x2fff0000        0x0
 .glue_7        0x2fff0000        0x0 linker stubs

.glue_7t        0x2fff0000        0x0
 .glue_7t       0x2fff0000        0x0 linker stubs

.vfp11_veneer   0x2fff0000        0x0
 .vfp11_veneer  0x2fff0000        0x0 linker stubs

.v4_bx          0x2fff0000        0x0
 .v4_bx         0x2fff0000        0x0 linker stubs

.iplt           0x2fff0000        0x0
 .iplt          0x2fff0000        0x0 build/obj/Src/main.o

.ARM.extab      0x2fff0000        0x0
                0x2fff0000                        . = ALIGN (0x4)
 *(.ARM.extab* .gnu.linkonce.armextab.*)
                0x2fff0000                        . = ALIGN (0x4)

.ARM            0x2fff0000        0x8
                0x2fff0000                        . = ALIGN (0x4)
                0x2fff0000                        __exidx_start = .
 *(.ARM.exidx*)
 .ARM.exidx.text.__udivmoddi4
                0x2fff0000        0x8 c:/program files (x86)/arm gnu toolchain arm-none-eabi/12.3 rel1/bin/../lib/gcc/arm-none-eabi/12.3.1/thumb/v7ve+simd/hard\libgcc.a(_udivmoddi4.o)
                0x2fff0008                        __exidx_end = .
                0x2fff0008                        . = ALIGN (0x4)

.rel.dyn        0x2fff0008        0x0
 .rel.iplt      0x2fff0008        0x0 build/obj/Src/main.o

.preinit_array  0x2fff0008        0x0
                0x2fff0008                        . = ALIGN (0x4)
                0x2fff0008                        PROVIDE (__preinit_array_start = .)
 *(.preinit_array*)
                0x2fff0008                        PROVIDE (__preinit_array_end = .)
                0x2fff0008                        . = ALIGN (0x4)

.init_array     0x2fff0008        0x0
                0x2fff0008                        . = ALIGN (0x4)
                0x2fff0008                        PROVIDE (__init_array_start = .)
 *(SORT_BY_NAME(.init_array.*))
 *(.init_array*)
                0x2fff0008                        PROVIDE (__init_array_end = .)
                0x2fff0008                        . = ALIGN (0x4)

.fini_array     0x2fff0008        0x0
                0x2fff0008                        . = ALIGN (0x4)
                [!provide]                        PROVIDE (__fini_array_start = .)
 *(SORT_BY_NAME(.fini_array.*))
 *(.fini_array*)
                [!provide]                        PROVIDE (__fini_array_end = .)
                0x2fff0008                        . = ALIGN (0x4)

.data           0x2fff0008      0x694
                0x2fff0008                        RW_DATA = .
 *(.data*)
 .data.SystemCoreClock
                0x2fff0008        0x4 build/obj/Drivers/system_stm32mp13xx_A7.o
                0x2fff0008                SystemCoreClock
 .data.IRQ_Vector_Table
                0x2fff000c      0x2d8 build/obj/Drivers/startup_stm32mp135fxx_ca7.o
                0x2fff000c                IRQ_Vector_Table
 .data.uwTickPrio
                0x2fff02e4        0x4 build/obj/Drivers/STM32MP13xx_HAL_Driver/Src/stm32mp13xx_hal.o
                0x2fff02e4                uwTickPrio
 .data.uwTickFreq
                0x2fff02e8        0x1 build/obj/Drivers/STM32MP13xx_HAL_Driver/Src/stm32mp13xx_hal.o
                0x2fff02e8                uwTickFreq
 *fill*         0x2fff02e9        0x3 
 .data.LED_PORT
                0x2fff02ec        0x8 build/obj/Drivers/STM32MP13xx_DISCO/stm32mp13xx_disco.o
 .data.buck1_voltage_table
                0x2fff02f4       0x40 build/obj/Drivers/STM32MP13xx_DISCO/stm32mp13xx_disco_stpmic1.o
 .data.buck2_voltage_table
                0x2fff0334       0x4a build/obj/Drivers/STM32MP13xx_DISCO/stm32mp13xx_disco_stpmic1.o
 *fill*         0x2fff037e        0x2 
 .data.buck3_voltage_table
                0x2fff0380       0x70 build/obj/Drivers/STM32MP13xx_DISCO/stm32mp13xx_disco_stpmic1.o
 .data.buck4_voltage_table
                0x2fff03f0       0x7a build/obj/Drivers/STM32MP13xx_DISCO/stm32mp13xx_disco_stpmic1.o
 *fill*         0x2fff046a        0x2 
 .data.ldo1_voltage_table
                0x2fff046c       0x32 build/obj/Drivers/STM32MP13xx_DISCO/stm32mp13xx_disco_stpmic1.o
 *fill*         0x2fff049e        0x2 
 .data.ldo2_voltage_table
                0x2fff04a0       0x32 build/obj/Drivers/STM32MP13xx_DISCO/stm32mp13xx_disco_stpmic1.o
 *fill*         0x2fff04d2        0x2 
 .data.ldo3_voltage_table
                0x2fff04d4       0x40 build/obj/Drivers/STM32MP13xx_DISCO/stm32mp13xx_disco_stpmic1.o
 .data.ldo5_voltage_table
                0x2fff0514       0x3e build/obj/Drivers/STM32MP13xx_DISCO/stm32mp13xx_disco_stpmic1.o
 *fill*         0x2fff0552        0x2 
 .data.ldo6_voltage_table
                0x2fff0554       0x32 build/obj/Drivers/STM32MP13xx_DISCO/stm32mp13xx_disco_stpmic1.o
 *fill*         0x2fff0586        0x2 
 .data.ldo4_voltage_table
                0x2fff0588        0x2 build/obj/Drivers/STM32MP13xx_DISCO/stm32mp13xx_disco_stpmic1.o
 *fill*         0x2fff058a        0x2 
 .data.vref_ddr_voltage_table
                0x2fff058c        0x2 build/obj/Drivers/STM32MP13xx_DISCO/stm32mp13xx_disco_stpmic1.o
 *fill*         0x2fff058e        0x2 
 .data.regulators_table
                0x2fff0590       0xb0 build/obj/Drivers/STM32MP13xx_DISCO/stm32mp13xx_disco_stpmic1.o
 .data._impure_ptr
                0x2fff0640        0x4 c:/program files (x86)/arm gnu toolchain arm-none-eabi/12.3 rel1/bin/../lib/gcc/arm-none-eabi/12.3.1/thumb/v7ve+simd/hard\libc_nano.a(libc_a-impure.o)
                0x2fff0640                _impure_ptr
 .data._impure_data
                0x2fff0644       0x4c c:/program files (x86)/arm gnu toolchain arm-none-eabi/12.3 rel1/bin/../lib/gcc/arm-none-eabi/12.3.1/thumb/v7ve+simd/hard\libc_nano.a(libc_a-impure.o)
                0x2fff0644                _impure_data
 .data.__sglue  0x2fff0690        0xc c:/program files (x86)/arm gnu toolchain arm-none-eabi/12.3 rel1/bin/../lib/gcc/arm-none-eabi/12.3.1/thumb/v7ve+simd/hard\libc_nano.a(libc_a-findfp.o)
                0x2fff0690                __sglue
                0x2fff069c                        __DATA_END__ = .

.igot.plt       0x2fff069c        0x0
 .igot.plt      0x2fff069c        0x0 build/obj/Src/main.o

.bss            0x2fff06a0     0x12a0
                0x2fff06a0                        ZI_DATA = .
 *(SORT_BY_ALIGNMENT(.bss*))
 .bss.huart4    0x2fff06a0       0x94 build/obj/Src/main.o
                0x2fff06a0                huart4
 .bss.IRQTable  0x2fff0734      0xff0 build/obj/Drivers/CMSIS/Core_A/Source/irq_ctrl_gic.o
 .bss.IRQ_ID0   0x2fff1724        0x4 build/obj/Drivers/CMSIS/Core_A/Source/irq_ctrl_gic.o
 .bss.uwTick.0  0x2fff1728        0x4 build/obj/Drivers/STM32MP13xx_HAL_Driver/Src/stm32mp13xx_hal.o
 .bss.hbus_i2c4
                0x2fff172c       0x54 build/obj/Drivers/STM32MP13xx_DISCO/stm32mp13xx_disco_bus.o
 .bss.hpmic_i2c4
                0x2fff1780       0x54 build/obj/Drivers/STM32MP13xx_DISCO/stm32mp13xx_disco_stpmic1.o
 .bss.__sf      0x2fff17d4      0x138 c:/program files (x86)/arm gnu toolchain arm-none-eabi/12.3 rel1/bin/../lib/gcc/arm-none-eabi/12.3.1/thumb/v7ve+simd/hard\libc_nano.a(libc_a-findfp.o)
                0x2fff17d4                __sf
 .bss.__stdio_exit_handler
                0x2fff190c        0x4 c:/program files (x86)/arm gnu toolchain arm-none-eabi/12.3 rel1/bin/../lib/gcc/arm-none-eabi/12.3.1/thumb/v7ve+simd/hard\libc_nano.a(libc_a-findfp.o)
                0x2fff190c                __stdio_exit_handler
 .bss.errno     0x2fff1910        0x4 c:/program files (x86)/arm gnu toolchain arm-none-eabi/12.3 rel1/bin/../lib/gcc/arm-none-eabi/12.3.1/thumb/v7ve+simd/hard\libc_nano.a(libc_a-reent.o)
                0x2fff1910                errno
 .bss.__malloc_sbrk_start
                0x2fff1914        0x4 c:/program files (x86)/arm gnu toolchain arm-none-eabi/12.3 rel1/bin/../lib/gcc/arm-none-eabi/12.3.1/thumb/v7ve+simd/hard\libc_nano.a(libc_a-mallocr.o)
                0x2fff1914                __malloc_sbrk_start
 .bss.__malloc_free_list
                0x2fff1918        0x4 c:/program files (x86)/arm gnu toolchain arm-none-eabi/12.3 rel1/bin/../lib/gcc/arm-none-eabi/12.3.1/thumb/v7ve+simd/hard\libc_nano.a(libc_a-mallocr.o)
                0x2fff1918                __malloc_free_list
 .bss.heap_end.0
                0x2fff191c        0x4 c:/program files (x86)/arm gnu toolchain arm-none-eabi/12.3 rel1/bin/../lib/gcc/arm-none-eabi/12.3.1/thumb/v7ve+simd/hard\libnosys.a(sbrk.o)
 .bss.__lock___malloc_recursive_mutex
                0x2fff1920        0x1 c:/program files (x86)/arm gnu toolchain arm-none-eabi/12.3 rel1/bin/../lib/gcc/arm-none-eabi/12.3.1/thumb/v7ve+simd/hard\libc_nano.a(libc_a-lock.o)
                0x2fff1920                __lock___malloc_recursive_mutex
 .bss.__lock___sfp_recursive_mutex
                0x2fff1921        0x1 c:/program files (x86)/arm gnu toolchain arm-none-eabi/12.3 rel1/bin/../lib/gcc/arm-none-eabi/12.3.1/thumb/v7ve+simd/hard\libc_nano.a(libc_a-lock.o)
                0x2fff1921                __lock___sfp_recursive_mutex
 *(COMMON)
                0x2fff1940                        . = ALIGN (0x20)
 *fill*         0x2fff1922       0x1e 
                0x2fff1940                        __BSS_END__ = .
                0x000012a0                        __BSS_SIZE__ = SIZEOF (.bss)

._TTB           0x2fff4000     0x5000
                0x2fff4000                        TTB = .
                0x2fff8000                        . = (. + TTB_L1_SIZE)
 *fill*         0x2fff4000     0x4000 
                0x2fff9000                        . = (. + (TTB_L2_SIZE * 0x4))
 *fill*         0x2fff8000     0x1000 

._user_heap_stack
                0x2fff9000      0x600
                0x2fff9000                        . = ALIGN (0x8)
                0x2fff9000                        PROVIDE (end = .)
                [!provide]                        PROVIDE (_end = .)
                0x2fff9200                        . = (. + _Min_Heap_Size)
 *fill*         0x2fff9000      0x200 
                0x2fff9600                        . = (. + _Min_Stack_Size)
 *fill*         0x2fff9200      0x400 
                0x2fff9600                        . = ALIGN (0x8)

/DISCARD/
 libc.a(*)
 libm.a(*)
 libgcc.a(*)
OUTPUT(build/main.elf elf32-littlearm)
LOAD linker stubs
LOAD c:/program files (x86)/arm gnu toolchain arm-none-eabi/12.3 rel1/bin/../lib/gcc/arm-none-eabi/12.3.1/thumb/v7ve+simd/hard\libc.a
LOAD c:/program files (x86)/arm gnu toolchain arm-none-eabi/12.3 rel1/bin/../lib/gcc/arm-none-eabi/12.3.1/thumb/v7ve+simd/hard\libm.a
LOAD c:/program files (x86)/arm gnu toolchain arm-none-eabi/12.3 rel1/bin/../lib/gcc/arm-none-eabi/12.3.1/thumb/v7ve+simd/hard\libgcc.a

.debug_info     0x00000000    0x18642
 .debug_info    0x00000000     0x24f9 build/obj/Src/main.o
 .debug_info    0x000024f9      0x6b1 build/obj/Drivers/syscalls.o
 .debug_info    0x00002baa     0x1d33 build/obj/Drivers/system_stm32mp13xx_A7.o
 .debug_info    0x000048dd      0xfcb build/obj/Drivers/startup_stm32mp135fxx_ca7.o
 .debug_info    0x000058a8     0x1268 build/obj/Drivers/CMSIS/Core_A/Source/irq_ctrl_gic.o
 .debug_info    0x00006b10     0x1c03 build/obj/Drivers/STM32MP13xx_HAL_Driver/Src/stm32mp13xx_hal.o
 .debug_info    0x00008713      0x8da build/obj/Drivers/STM32MP13xx_HAL_Driver/Src/stm32mp13xx_hal_gpio.o
 .debug_info    0x00008fed     0x22de build/obj/Drivers/STM32MP13xx_HAL_Driver/Src/stm32mp13xx_hal_i2c.o
 .debug_info    0x0000b2cb     0x1c35 build/obj/Drivers/STM32MP13xx_HAL_Driver/Src/stm32mp13xx_hal_rcc.o
 .debug_info    0x0000cf00     0x1538 build/obj/Drivers/STM32MP13xx_HAL_Driver/Src/stm32mp13xx_hal_rcc_ex.o
 .debug_info    0x0000e438     0x2c6e build/obj/Drivers/STM32MP13xx_HAL_Driver/Src/stm32mp13xx_hal_uart.o
 .debug_info    0x000110a6      0xeba build/obj/Drivers/STM32MP13xx_HAL_Driver/Src/stm32mp13xx_hal_uart_ex.o
 .debug_info    0x00011f60     0x19fc build/obj/Drivers/STM32MP13xx_DISCO/stm32mp13xx_disco.o
 .debug_info    0x0001395c     0x2716 build/obj/Drivers/STM32MP13xx_DISCO/stm32mp13xx_disco_bus.o
 .debug_info    0x00016072     0x25d0 build/obj/Drivers/STM32MP13xx_DISCO/stm32mp13xx_disco_stpmic1.o

.debug_abbrev   0x00000000     0x275a
 .debug_abbrev  0x00000000      0x324 build/obj/Src/main.o
 .debug_abbrev  0x00000324      0x1ca build/obj/Drivers/syscalls.o
 .debug_abbrev  0x000004ee      0x3ca build/obj/Drivers/system_stm32mp13xx_A7.o
 .debug_abbrev  0x000008b8       0xda build/obj/Drivers/startup_stm32mp135fxx_ca7.o
 .debug_abbrev  0x00000992      0x2cc build/obj/Drivers/CMSIS/Core_A/Source/irq_ctrl_gic.o
 .debug_abbrev  0x00000c5e      0x36c build/obj/Drivers/STM32MP13xx_HAL_Driver/Src/stm32mp13xx_hal.o
 .debug_abbrev  0x00000fca      0x1ea build/obj/Drivers/STM32MP13xx_HAL_Driver/Src/stm32mp13xx_hal_gpio.o
 .debug_abbrev  0x000011b4      0x290 build/obj/Drivers/STM32MP13xx_HAL_Driver/Src/stm32mp13xx_hal_i2c.o
 .debug_abbrev  0x00001444      0x2b8 build/obj/Drivers/STM32MP13xx_HAL_Driver/Src/stm32mp13xx_hal_rcc.o
 .debug_abbrev  0x000016fc      0x266 build/obj/Drivers/STM32MP13xx_HAL_Driver/Src/stm32mp13xx_hal_rcc_ex.o
 .debug_abbrev  0x00001962      0x2fb build/obj/Drivers/STM32MP13xx_HAL_Driver/Src/stm32mp13xx_hal_uart.o
 .debug_abbrev  0x00001c5d      0x256 build/obj/Drivers/STM32MP13xx_HAL_Driver/Src/stm32mp13xx_hal_uart_ex.o
 .debug_abbrev  0x00001eb3      0x2cd build/obj/Drivers/STM32MP13xx_DISCO/stm32mp13xx_disco.o
 .debug_abbrev  0x00002180      0x2ce build/obj/Drivers/STM32MP13xx_DISCO/stm32mp13xx_disco_bus.o
 .debug_abbrev  0x0000244e      0x30c build/obj/Drivers/STM32MP13xx_DISCO/stm32mp13xx_disco_stpmic1.o

.debug_aranges  0x00000000     0x14c0
 .debug_aranges
                0x00000000       0x60 build/obj/Src/main.o
 .debug_aranges
                0x00000060       0xb0 build/obj/Drivers/syscalls.o
 .debug_aranges
                0x00000110       0x80 build/obj/Drivers/system_stm32mp13xx_A7.o
 .debug_aranges
                0x00000190      0x590 build/obj/Drivers/startup_stm32mp135fxx_ca7.o
 .debug_aranges
                0x00000720      0x1a0 build/obj/Drivers/CMSIS/Core_A/Source/irq_ctrl_gic.o
 .debug_aranges
                0x000008c0      0x150 build/obj/Drivers/STM32MP13xx_HAL_Driver/Src/stm32mp13xx_hal.o
 .debug_aranges
                0x00000a10       0x68 build/obj/Drivers/STM32MP13xx_HAL_Driver/Src/stm32mp13xx_hal_gpio.o
 .debug_aranges
                0x00000a78      0x2a0 build/obj/Drivers/STM32MP13xx_HAL_Driver/Src/stm32mp13xx_hal_i2c.o
 .debug_aranges
                0x00000d18      0x168 build/obj/Drivers/STM32MP13xx_HAL_Driver/Src/stm32mp13xx_hal_rcc.o
 .debug_aranges
                0x00000e80       0x58 build/obj/Drivers/STM32MP13xx_HAL_Driver/Src/stm32mp13xx_hal_rcc_ex.o
 .debug_aranges
                0x00000ed8      0x248 build/obj/Drivers/STM32MP13xx_HAL_Driver/Src/stm32mp13xx_hal_uart.o
 .debug_aranges
                0x00001120       0xa8 build/obj/Drivers/STM32MP13xx_HAL_Driver/Src/stm32mp13xx_hal_uart_ex.o
 .debug_aranges
                0x000011c8       0xc0 build/obj/Drivers/STM32MP13xx_DISCO/stm32mp13xx_disco.o
 .debug_aranges
                0x00001288      0x140 build/obj/Drivers/STM32MP13xx_DISCO/stm32mp13xx_disco_bus.o
 .debug_aranges
                0x000013c8       0xf8 build/obj/Drivers/STM32MP13xx_DISCO/stm32mp13xx_disco_stpmic1.o

.debug_rnglists
                0x00000000     0x1041
 .debug_rnglists
                0x00000000       0x47 build/obj/Src/main.o
 .debug_rnglists
                0x00000047       0x7f build/obj/Drivers/syscalls.o
 .debug_rnglists
                0x000000c6       0x61 build/obj/Drivers/system_stm32mp13xx_A7.o
 .debug_rnglists
                0x00000127      0x428 build/obj/Drivers/startup_stm32mp135fxx_ca7.o
 .debug_rnglists
                0x0000054f      0x140 build/obj/Drivers/CMSIS/Core_A/Source/irq_ctrl_gic.o
 .debug_rnglists
                0x0000068f       0xff build/obj/Drivers/STM32MP13xx_HAL_Driver/Src/stm32mp13xx_hal.o
 .debug_rnglists
                0x0000078e       0x4d build/obj/Drivers/STM32MP13xx_HAL_Driver/Src/stm32mp13xx_hal_gpio.o
 .debug_rnglists
                0x000007db      0x22e build/obj/Drivers/STM32MP13xx_HAL_Driver/Src/stm32mp13xx_hal_i2c.o
 .debug_rnglists
                0x00000a09      0x11e build/obj/Drivers/STM32MP13xx_HAL_Driver/Src/stm32mp13xx_hal_rcc.o
 .debug_rnglists
                0x00000b27       0x43 build/obj/Drivers/STM32MP13xx_HAL_Driver/Src/stm32mp13xx_hal_rcc_ex.o
 .debug_rnglists
                0x00000b6a      0x1ff build/obj/Drivers/STM32MP13xx_HAL_Driver/Src/stm32mp13xx_hal_uart.o
 .debug_rnglists
                0x00000d69       0x84 build/obj/Drivers/STM32MP13xx_HAL_Driver/Src/stm32mp13xx_hal_uart_ex.o
 .debug_rnglists
                0x00000ded       0x8e build/obj/Drivers/STM32MP13xx_DISCO/stm32mp13xx_disco.o
 .debug_rnglists
                0x00000e7b      0x106 build/obj/Drivers/STM32MP13xx_DISCO/stm32mp13xx_disco_bus.o
 .debug_rnglists
                0x00000f81       0xc0 build/obj/Drivers/STM32MP13xx_DISCO/stm32mp13xx_disco_stpmic1.o

.debug_line     0x00000000     0xcd33
 .debug_line    0x00000000      0x50f build/obj/Src/main.o
 .debug_line    0x0000050f      0x38f build/obj/Drivers/syscalls.o
 .debug_line    0x0000089e      0x7e9 build/obj/Drivers/system_stm32mp13xx_A7.o
 .debug_line    0x00001087      0xf39 build/obj/Drivers/startup_stm32mp135fxx_ca7.o
 .debug_line    0x00001fc0      0xa3b build/obj/Drivers/CMSIS/Core_A/Source/irq_ctrl_gic.o
 .debug_line    0x000029fb      0x846 build/obj/Drivers/STM32MP13xx_HAL_Driver/Src/stm32mp13xx_hal.o
 .debug_line    0x00003241      0x619 build/obj/Drivers/STM32MP13xx_HAL_Driver/Src/stm32mp13xx_hal_gpio.o
 .debug_line    0x0000385a     0x34f4 build/obj/Drivers/STM32MP13xx_HAL_Driver/Src/stm32mp13xx_hal_i2c.o
 .debug_line    0x00006d4e     0x1538 build/obj/Drivers/STM32MP13xx_HAL_Driver/Src/stm32mp13xx_hal_rcc.o
 .debug_line    0x00008286     0x143a build/obj/Drivers/STM32MP13xx_HAL_Driver/Src/stm32mp13xx_hal_rcc_ex.o
 .debug_line    0x000096c0     0x1c45 build/obj/Drivers/STM32MP13xx_HAL_Driver/Src/stm32mp13xx_hal_uart.o
 .debug_line    0x0000b305      0x735 build/obj/Drivers/STM32MP13xx_HAL_Driver/Src/stm32mp13xx_hal_uart_ex.o
 .debug_line    0x0000ba3a      0x4f1 build/obj/Drivers/STM32MP13xx_DISCO/stm32mp13xx_disco.o
 .debug_line    0x0000bf2b      0x791 build/obj/Drivers/STM32MP13xx_DISCO/stm32mp13xx_disco_bus.o
 .debug_line    0x0000c6bc      0x677 build/obj/Drivers/STM32MP13xx_DISCO/stm32mp13xx_disco_stpmic1.o

.debug_str      0x00000000     0x6db8
 .debug_str     0x00000000     0x2309 build/obj/Src/main.o
                               0x2413 (size before relaxing)
 .debug_str     0x00002309      0x20b build/obj/Drivers/syscalls.o
                                0x40b (size before relaxing)
 .debug_str     0x00002514      0x3fe build/obj/Drivers/system_stm32mp13xx_A7.o
                               0x19f0 (size before relaxing)
 .debug_str     0x00002912      0xcc9 build/obj/Drivers/startup_stm32mp135fxx_ca7.o
                               0x1828 (size before relaxing)
 .debug_str     0x000035db      0x4d8 build/obj/Drivers/CMSIS/Core_A/Source/irq_ctrl_gic.o
                               0x10e1 (size before relaxing)
 .debug_str     0x00003ab3      0x63d build/obj/Drivers/STM32MP13xx_HAL_Driver/Src/stm32mp13xx_hal.o
                               0x1cdc (size before relaxing)
 .debug_str     0x000040f0      0x1f4 build/obj/Drivers/STM32MP13xx_HAL_Driver/Src/stm32mp13xx_hal_gpio.o
                                0x563 (size before relaxing)
 .debug_str     0x000042e4      0xb98 build/obj/Drivers/STM32MP13xx_HAL_Driver/Src/stm32mp13xx_hal_i2c.o
                               0x1177 (size before relaxing)
 .debug_str     0x00004e7c      0x6c6 build/obj/Drivers/STM32MP13xx_HAL_Driver/Src/stm32mp13xx_hal_rcc.o
                               0x1686 (size before relaxing)
 .debug_str     0x00005542       0xcd build/obj/Drivers/STM32MP13xx_HAL_Driver/Src/stm32mp13xx_hal_rcc_ex.o
                               0x14e1 (size before relaxing)
 .debug_str     0x0000560f      0x86b build/obj/Drivers/STM32MP13xx_HAL_Driver/Src/stm32mp13xx_hal_uart.o
                               0x263b (size before relaxing)
 .debug_str     0x00005e7a      0x253 build/obj/Drivers/STM32MP13xx_HAL_Driver/Src/stm32mp13xx_hal_uart_ex.o
                                0xbc5 (size before relaxing)
 .debug_str     0x000060cd      0x426 build/obj/Drivers/STM32MP13xx_DISCO/stm32mp13xx_disco.o
                               0x1ba2 (size before relaxing)
 .debug_str     0x000064f3      0x250 build/obj/Drivers/STM32MP13xx_DISCO/stm32mp13xx_disco_bus.o
                               0x2023 (size before relaxing)
 .debug_str     0x00006743      0x675 build/obj/Drivers/STM32MP13xx_DISCO/stm32mp13xx_disco_stpmic1.o
                               0x2476 (size before relaxing)

.comment        0x00000000       0x45
 .comment       0x00000000       0x45 build/obj/Src/main.o
                                 0x46 (size before relaxing)
 .comment       0x00000045       0x46 build/obj/Drivers/syscalls.o
 .comment       0x00000045       0x46 build/obj/Drivers/system_stm32mp13xx_A7.o
 .comment       0x00000045       0x46 build/obj/Drivers/startup_stm32mp135fxx_ca7.o
 .comment       0x00000045       0x46 build/obj/Drivers/CMSIS/Core_A/Source/irq_ctrl_gic.o
 .comment       0x00000045       0x46 build/obj/Drivers/STM32MP13xx_HAL_Driver/Src/stm32mp13xx_hal.o
 .comment       0x00000045       0x46 build/obj/Drivers/STM32MP13xx_HAL_Driver/Src/stm32mp13xx_hal_gpio.o
 .comment       0x00000045       0x46 build/obj/Drivers/STM32MP13xx_HAL_Driver/Src/stm32mp13xx_hal_i2c.o
 .comment       0x00000045       0x46 build/obj/Drivers/STM32MP13xx_HAL_Driver/Src/stm32mp13xx_hal_rcc.o
 .comment       0x00000045       0x46 build/obj/Drivers/STM32MP13xx_HAL_Driver/Src/stm32mp13xx_hal_rcc_ex.o
 .comment       0x00000045       0x46 build/obj/Drivers/STM32MP13xx_HAL_Driver/Src/stm32mp13xx_hal_uart.o
 .comment       0x00000045       0x46 build/obj/Drivers/STM32MP13xx_HAL_Driver/Src/stm32mp13xx_hal_uart_ex.o
 .comment       0x00000045       0x46 build/obj/Drivers/STM32MP13xx_DISCO/stm32mp13xx_disco.o
 .comment       0x00000045       0x46 build/obj/Drivers/STM32MP13xx_DISCO/stm32mp13xx_disco_bus.o
 .comment       0x00000045       0x46 build/obj/Drivers/STM32MP13xx_DISCO/stm32mp13xx_disco_stpmic1.o

.ARM.attributes
                0x00000000       0x39
 .ARM.attributes
                0x00000000       0x3b build/obj/Src/main.o
 .ARM.attributes
                0x0000003b       0x3b build/obj/Drivers/syscalls.o
 .ARM.attributes
                0x00000076       0x3b build/obj/Drivers/system_stm32mp13xx_A7.o
 .ARM.attributes
                0x000000b1       0x3b build/obj/Drivers/startup_stm32mp135fxx_ca7.o
 .ARM.attributes
                0x000000ec       0x3b build/obj/Drivers/CMSIS/Core_A/Source/irq_ctrl_gic.o
 .ARM.attributes
                0x00000127       0x3b build/obj/Drivers/STM32MP13xx_HAL_Driver/Src/stm32mp13xx_hal.o
 .ARM.attributes
                0x00000162       0x3b build/obj/Drivers/STM32MP13xx_HAL_Driver/Src/stm32mp13xx_hal_gpio.o
 .ARM.attributes
                0x0000019d       0x3b build/obj/Drivers/STM32MP13xx_HAL_Driver/Src/stm32mp13xx_hal_i2c.o
 .ARM.attributes
                0x000001d8       0x3b build/obj/Drivers/STM32MP13xx_HAL_Driver/Src/stm32mp13xx_hal_rcc.o
 .ARM.attributes
                0x00000213       0x3b build/obj/Drivers/STM32MP13xx_HAL_Driver/Src/stm32mp13xx_hal_rcc_ex.o
 .ARM.attributes
                0x0000024e       0x3b build/obj/Drivers/STM32MP13xx_HAL_Driver/Src/stm32mp13xx_hal_uart.o
 .ARM.attributes
                0x00000289       0x3b build/obj/Drivers/STM32MP13xx_HAL_Driver/Src/stm32mp13xx_hal_uart_ex.o
 .ARM.attributes
                0x000002c4       0x3b build/obj/Drivers/STM32MP13xx_DISCO/stm32mp13xx_disco.o
 .ARM.attributes
                0x000002ff       0x3b build/obj/Drivers/STM32MP13xx_DISCO/stm32mp13xx_disco_bus.o
 .ARM.attributes
                0x0000033a       0x3b build/obj/Drivers/STM32MP13xx_DISCO/stm32mp13xx_disco_stpmic1.o
 .ARM.attributes
                0x00000375       0x29 c:/program files (x86)/arm gnu toolchain arm-none-eabi/12.3 rel1/bin/../lib/gcc/arm-none-eabi/12.3.1/thumb/v7ve+simd/hard\libgcc.a(_aeabi_uldivmod.o)
 .ARM.attributes
                0x0000039e       0x3b c:/program files (x86)/arm gnu toolchain arm-none-eabi/12.3 rel1/bin/../lib/gcc/arm-none-eabi/12.3.1/thumb/v7ve+simd/hard\libgcc.a(_udivmoddi4.o)
 .ARM.attributes
                0x000003d9       0x29 c:/program files (x86)/arm gnu toolchain arm-none-eabi/12.3 rel1/bin/../lib/gcc/arm-none-eabi/12.3.1/thumb/v7ve+simd/hard\libgcc.a(_dvmd_tls.o)
 .ARM.attributes
                0x00000402       0x3b c:/program files (x86)/arm gnu toolchain arm-none-eabi/12.3 rel1/bin/../lib/gcc/arm-none-eabi/12.3.1/thumb/v7ve+simd/hard\libc_nano.a(libc_a-printf.o)
 .ARM.attributes
                0x0000043d       0x3b c:/program files (x86)/arm gnu toolchain arm-none-eabi/12.3 rel1/bin/../lib/gcc/arm-none-eabi/12.3.1/thumb/v7ve+simd/hard\libc_nano.a(libc_a-memset.o)
 .ARM.attributes
                0x00000478       0x3b c:/program files (x86)/arm gnu toolchain arm-none-eabi/12.3 rel1/bin/../lib/gcc/arm-none-eabi/12.3.1/thumb/v7ve+simd/hard\libc_nano.a(libc_a-impure.o)
 .ARM.attributes
                0x000004b3       0x3b c:/program files (x86)/arm gnu toolchain arm-none-eabi/12.3 rel1/bin/../lib/gcc/arm-none-eabi/12.3.1/thumb/v7ve+simd/hard\libc_nano.a(libc_a-init.o)
 .ARM.attributes
                0x000004ee       0x3b c:/program files (x86)/arm gnu toolchain arm-none-eabi/12.3 rel1/bin/../lib/gcc/arm-none-eabi/12.3.1/thumb/v7ve+simd/hard\libc_nano.a(libc_a-nano-vfprintf.o)
 .ARM.attributes
                0x00000529       0x3b c:/program files (x86)/arm gnu toolchain arm-none-eabi/12.3 rel1/bin/../lib/gcc/arm-none-eabi/12.3.1/thumb/v7ve+simd/hard\libc_nano.a(libc_a-nano-vfprintf_i.o)
 .ARM.attributes
                0x00000564       0x3b c:/program files (x86)/arm gnu toolchain arm-none-eabi/12.3 rel1/bin/../lib/gcc/arm-none-eabi/12.3.1/thumb/v7ve+simd/hard\libc_nano.a(libc_a-findfp.o)
 .ARM.attributes
                0x0000059f       0x3b c:/program files (x86)/arm gnu toolchain arm-none-eabi/12.3 rel1/bin/../lib/gcc/arm-none-eabi/12.3.1/thumb/v7ve+simd/hard\libc_nano.a(libc_a-fwalk.o)
 .ARM.attributes
                0x000005da       0x3b c:/program files (x86)/arm gnu toolchain arm-none-eabi/12.3 rel1/bin/../lib/gcc/arm-none-eabi/12.3.1/thumb/v7ve+simd/hard\libc_nano.a(libc_a-stdio.o)
 .ARM.attributes
                0x00000615       0x3b c:/program files (x86)/arm gnu toolchain arm-none-eabi/12.3 rel1/bin/../lib/gcc/arm-none-eabi/12.3.1/thumb/v7ve+simd/hard\libc_nano.a(libc_a-wbuf.o)
 .ARM.attributes
                0x00000650       0x3b c:/program files (x86)/arm gnu toolchain arm-none-eabi/12.3 rel1/bin/../lib/gcc/arm-none-eabi/12.3.1/thumb/v7ve+simd/hard\libc_nano.a(libc_a-wsetup.o)
 .ARM.attributes
                0x0000068b       0x3b c:/program files (x86)/arm gnu toolchain arm-none-eabi/12.3 rel1/bin/../lib/gcc/arm-none-eabi/12.3.1/thumb/v7ve+simd/hard\libc_nano.a(libc_a-closer.o)
 .ARM.attributes
                0x000006c6       0x3b c:/program files (x86)/arm gnu toolchain arm-none-eabi/12.3 rel1/bin/../lib/gcc/arm-none-eabi/12.3.1/thumb/v7ve+simd/hard\libc_nano.a(libc_a-reent.o)
 .ARM.attributes
                0x00000701       0x3b c:/program files (x86)/arm gnu toolchain arm-none-eabi/12.3 rel1/bin/../lib/gcc/arm-none-eabi/12.3.1/thumb/v7ve+simd/hard\libc_nano.a(libc_a-lseekr.o)
 .ARM.attributes
                0x0000073c       0x3b c:/program files (x86)/arm gnu toolchain arm-none-eabi/12.3 rel1/bin/../lib/gcc/arm-none-eabi/12.3.1/thumb/v7ve+simd/hard\libc_nano.a(libc_a-readr.o)
 .ARM.attributes
                0x00000777       0x3b c:/program files (x86)/arm gnu toolchain arm-none-eabi/12.3 rel1/bin/../lib/gcc/arm-none-eabi/12.3.1/thumb/v7ve+simd/hard\libc_nano.a(libc_a-writer.o)
 .ARM.attributes
                0x000007b2       0x3b c:/program files (x86)/arm gnu toolchain arm-none-eabi/12.3 rel1/bin/../lib/gcc/arm-none-eabi/12.3.1/thumb/v7ve+simd/hard\libc_nano.a(libc_a-lock.o)
 .ARM.attributes
                0x000007ed       0x21 c:/program files (x86)/arm gnu toolchain arm-none-eabi/12.3 rel1/bin/../lib/gcc/arm-none-eabi/12.3.1/thumb/v7ve+simd/hard\libc_nano.a(libc_a-memchr.o)
 .ARM.attributes
                0x0000080e       0x3b c:/program files (x86)/arm gnu toolchain arm-none-eabi/12.3 rel1/bin/../lib/gcc/arm-none-eabi/12.3.1/thumb/v7ve+simd/hard\libc_nano.a(libc_a-freer.o)
 .ARM.attributes
                0x00000849       0x3b c:/program files (x86)/arm gnu toolchain arm-none-eabi/12.3 rel1/bin/../lib/gcc/arm-none-eabi/12.3.1/thumb/v7ve+simd/hard\libc_nano.a(libc_a-mallocr.o)
 .ARM.attributes
                0x00000884       0x3b c:/program files (x86)/arm gnu toolchain arm-none-eabi/12.3 rel1/bin/../lib/gcc/arm-none-eabi/12.3.1/thumb/v7ve+simd/hard\libc_nano.a(libc_a-mlock.o)
 .ARM.attributes
                0x000008bf       0x3b c:/program files (x86)/arm gnu toolchain arm-none-eabi/12.3 rel1/bin/../lib/gcc/arm-none-eabi/12.3.1/thumb/v7ve+simd/hard\libc_nano.a(libc_a-fflush.o)
 .ARM.attributes
                0x000008fa       0x3b c:/program files (x86)/arm gnu toolchain arm-none-eabi/12.3 rel1/bin/../lib/gcc/arm-none-eabi/12.3.1/thumb/v7ve+simd/hard\libc_nano.a(libc_a-makebuf.o)
 .ARM.attributes
                0x00000935       0x3b c:/program files (x86)/arm gnu toolchain arm-none-eabi/12.3 rel1/bin/../lib/gcc/arm-none-eabi/12.3.1/thumb/v7ve+simd/hard\libc_nano.a(libc_a-fstatr.o)
 .ARM.attributes
                0x00000970       0x3b c:/program files (x86)/arm gnu toolchain arm-none-eabi/12.3 rel1/bin/../lib/gcc/arm-none-eabi/12.3.1/thumb/v7ve+simd/hard\libc_nano.a(libc_a-isattyr.o)
 .ARM.attributes
                0x000009ab       0x3b c:/program files (x86)/arm gnu toolchain arm-none-eabi/12.3 rel1/bin/../lib/gcc/arm-none-eabi/12.3.1/thumb/v7ve+simd/hard\libc_nano.a(libc_a-sbrkr.o)
 .ARM.attributes
                0x000009e6       0x3b c:/program files (x86)/arm gnu toolchain arm-none-eabi/12.3 rel1/bin/../lib/gcc/arm-none-eabi/12.3.1/thumb/v7ve+simd/hard\libnosys.a(sbrk.o)

.debug_frame    0x00000000     0x5714
 .debug_frame   0x00000000      0x130 build/obj/Src/main.o
 .debug_frame   0x00000130      0x278 build/obj/Drivers/syscalls.o
 .debug_frame   0x000003a8      0x1b8 build/obj/Drivers/system_stm32mp13xx_A7.o
 .debug_frame   0x00000560     0x15c8 build/obj/Drivers/startup_stm32mp135fxx_ca7.o
 .debug_frame   0x00001b28      0x628 build/obj/Drivers/CMSIS/Core_A/Source/irq_ctrl_gic.o
 .debug_frame   0x00002150      0x4e4 build/obj/Drivers/STM32MP13xx_HAL_Driver/Src/stm32mp13xx_hal.o
 .debug_frame   0x00002634      0x158 build/obj/Drivers/STM32MP13xx_HAL_Driver/Src/stm32mp13xx_hal_gpio.o
 .debug_frame   0x0000278c      0xab0 build/obj/Drivers/STM32MP13xx_HAL_Driver/Src/stm32mp13xx_hal_i2c.o
 .debug_frame   0x0000323c      0x54c build/obj/Drivers/STM32MP13xx_HAL_Driver/Src/stm32mp13xx_hal_rcc.o
 .debug_frame   0x00003788      0x134 build/obj/Drivers/STM32MP13xx_HAL_Driver/Src/stm32mp13xx_hal_rcc_ex.o
 .debug_frame   0x000038bc      0x8f8 build/obj/Drivers/STM32MP13xx_HAL_Driver/Src/stm32mp13xx_hal_uart.o
 .debug_frame   0x000041b4      0x254 build/obj/Drivers/STM32MP13xx_HAL_Driver/Src/stm32mp13xx_hal_uart_ex.o
 .debug_frame   0x00004408      0x290 build/obj/Drivers/STM32MP13xx_DISCO/stm32mp13xx_disco.o
 .debug_frame   0x00004698      0x494 build/obj/Drivers/STM32MP13xx_DISCO/stm32mp13xx_disco_bus.o
 .debug_frame   0x00004b2c      0x374 build/obj/Drivers/STM32MP13xx_DISCO/stm32mp13xx_disco_stpmic1.o
 .debug_frame   0x00004ea0       0x2c c:/program files (x86)/arm gnu toolchain arm-none-eabi/12.3 rel1/bin/../lib/gcc/arm-none-eabi/12.3.1/thumb/v7ve+simd/hard\libgcc.a(_aeabi_uldivmod.o)
 .debug_frame   0x00004ecc       0x40 c:/program files (x86)/arm gnu toolchain arm-none-eabi/12.3 rel1/bin/../lib/gcc/arm-none-eabi/12.3.1/thumb/v7ve+simd/hard\libgcc.a(_udivmoddi4.o)
 .debug_frame   0x00004f0c       0x6c c:/program files (x86)/arm gnu toolchain arm-none-eabi/12.3 rel1/bin/../lib/gcc/arm-none-eabi/12.3.1/thumb/v7ve+simd/hard\libc_nano.a(libc_a-printf.o)
 .debug_frame   0x00004f78       0x20 c:/program files (x86)/arm gnu toolchain arm-none-eabi/12.3 rel1/bin/../lib/gcc/arm-none-eabi/12.3.1/thumb/v7ve+simd/hard\libc_nano.a(libc_a-memset.o)
 .debug_frame   0x00004f98       0x2c c:/program files (x86)/arm gnu toolchain arm-none-eabi/12.3 rel1/bin/../lib/gcc/arm-none-eabi/12.3.1/thumb/v7ve+simd/hard\libc_nano.a(libc_a-init.o)
 .debug_frame   0x00004fc4       0xa8 c:/program files (x86)/arm gnu toolchain arm-none-eabi/12.3 rel1/bin/../lib/gcc/arm-none-eabi/12.3.1/thumb/v7ve+simd/hard\libc_nano.a(libc_a-nano-vfprintf.o)
 .debug_frame   0x0000506c       0x60 c:/program files (x86)/arm gnu toolchain arm-none-eabi/12.3 rel1/bin/../lib/gcc/arm-none-eabi/12.3.1/thumb/v7ve+simd/hard\libc_nano.a(libc_a-nano-vfprintf_i.o)
 .debug_frame   0x000050cc      0x144 c:/program files (x86)/arm gnu toolchain arm-none-eabi/12.3 rel1/bin/../lib/gcc/arm-none-eabi/12.3.1/thumb/v7ve+simd/hard\libc_nano.a(libc_a-findfp.o)
 .debug_frame   0x00005210       0x34 c:/program files (x86)/arm gnu toolchain arm-none-eabi/12.3 rel1/bin/../lib/gcc/arm-none-eabi/12.3.1/thumb/v7ve+simd/hard\libc_nano.a(libc_a-fwalk.o)
 .debug_frame   0x00005244       0x88 c:/program files (x86)/arm gnu toolchain arm-none-eabi/12.3 rel1/bin/../lib/gcc/arm-none-eabi/12.3.1/thumb/v7ve+simd/hard\libc_nano.a(libc_a-stdio.o)
 .debug_frame   0x000052cc       0x40 c:/program files (x86)/arm gnu toolchain arm-none-eabi/12.3 rel1/bin/../lib/gcc/arm-none-eabi/12.3.1/thumb/v7ve+simd/hard\libc_nano.a(libc_a-wbuf.o)
 .debug_frame   0x0000530c       0x2c c:/program files (x86)/arm gnu toolchain arm-none-eabi/12.3 rel1/bin/../lib/gcc/arm-none-eabi/12.3.1/thumb/v7ve+simd/hard\libc_nano.a(libc_a-wsetup.o)
 .debug_frame   0x00005338       0x2c c:/program files (x86)/arm gnu toolchain arm-none-eabi/12.3 rel1/bin/../lib/gcc/arm-none-eabi/12.3.1/thumb/v7ve+simd/hard\libc_nano.a(libc_a-closer.o)
 .debug_frame   0x00005364       0x38 c:/program files (x86)/arm gnu toolchain arm-none-eabi/12.3 rel1/bin/../lib/gcc/arm-none-eabi/12.3.1/thumb/v7ve+simd/hard\libc_nano.a(libc_a-reent.o)
 .debug_frame   0x0000539c       0x2c c:/program files (x86)/arm gnu toolchain arm-none-eabi/12.3 rel1/bin/../lib/gcc/arm-none-eabi/12.3.1/thumb/v7ve+simd/hard\libc_nano.a(libc_a-lseekr.o)
 .debug_frame   0x000053c8       0x2c c:/program files (x86)/arm gnu toolchain arm-none-eabi/12.3 rel1/bin/../lib/gcc/arm-none-eabi/12.3.1/thumb/v7ve+simd/hard\libc_nano.a(libc_a-readr.o)
 .debug_frame   0x000053f4       0x2c c:/program files (x86)/arm gnu toolchain arm-none-eabi/12.3 rel1/bin/../lib/gcc/arm-none-eabi/12.3.1/thumb/v7ve+simd/hard\libc_nano.a(libc_a-writer.o)
 .debug_frame   0x00005420       0xb0 c:/program files (x86)/arm gnu toolchain arm-none-eabi/12.3 rel1/bin/../lib/gcc/arm-none-eabi/12.3.1/thumb/v7ve+simd/hard\libc_nano.a(libc_a-lock.o)
 .debug_frame   0x000054d0       0x34 c:/program files (x86)/arm gnu toolchain arm-none-eabi/12.3 rel1/bin/../lib/gcc/arm-none-eabi/12.3.1/thumb/v7ve+simd/hard\libc_nano.a(libc_a-memchr.o)
 .debug_frame   0x00005504       0x38 c:/program files (x86)/arm gnu toolchain arm-none-eabi/12.3 rel1/bin/../lib/gcc/arm-none-eabi/12.3.1/thumb/v7ve+simd/hard\libc_nano.a(libc_a-freer.o)
 .debug_frame   0x0000553c       0x50 c:/program files (x86)/arm gnu toolchain arm-none-eabi/12.3 rel1/bin/../lib/gcc/arm-none-eabi/12.3.1/thumb/v7ve+simd/hard\libc_nano.a(libc_a-mallocr.o)
 .debug_frame   0x0000558c       0x30 c:/program files (x86)/arm gnu toolchain arm-none-eabi/12.3 rel1/bin/../lib/gcc/arm-none-eabi/12.3.1/thumb/v7ve+simd/hard\libc_nano.a(libc_a-mlock.o)
 .debug_frame   0x000055bc       0x5c c:/program files (x86)/arm gnu toolchain arm-none-eabi/12.3 rel1/bin/../lib/gcc/arm-none-eabi/12.3.1/thumb/v7ve+simd/hard\libc_nano.a(libc_a-fflush.o)
 .debug_frame   0x00005618       0x58 c:/program files (x86)/arm gnu toolchain arm-none-eabi/12.3 rel1/bin/../lib/gcc/arm-none-eabi/12.3.1/thumb/v7ve+simd/hard\libc_nano.a(libc_a-makebuf.o)
 .debug_frame   0x00005670       0x2c c:/program files (x86)/arm gnu toolchain arm-none-eabi/12.3 rel1/bin/../lib/gcc/arm-none-eabi/12.3.1/thumb/v7ve+simd/hard\libc_nano.a(libc_a-fstatr.o)
 .debug_frame   0x0000569c       0x2c c:/program files (x86)/arm gnu toolchain arm-none-eabi/12.3 rel1/bin/../lib/gcc/arm-none-eabi/12.3.1/thumb/v7ve+simd/hard\libc_nano.a(libc_a-isattyr.o)
 .debug_frame   0x000056c8       0x2c c:/program files (x86)/arm gnu toolchain arm-none-eabi/12.3 rel1/bin/../lib/gcc/arm-none-eabi/12.3.1/thumb/v7ve+simd/hard\libc_nano.a(libc_a-sbrkr.o)
 .debug_frame   0x000056f4       0x20 c:/program files (x86)/arm gnu toolchain arm-none-eabi/12.3 rel1/bin/../lib/gcc/arm-none-eabi/12.3.1/thumb/v7ve+simd/hard\libnosys.a(sbrk.o)

.debug_line_str
                0x00000000      0x1b8
 .debug_line_str
                0x00000000       0xca c:/program files (x86)/arm gnu toolchain arm-none-eabi/12.3 rel1/bin/../lib/gcc/arm-none-eabi/12.3.1/thumb/v7ve+simd/hard\libgcc.a(_aeabi_uldivmod.o)
 .debug_line_str
                0x000000ca        0xc c:/program files (x86)/arm gnu toolchain arm-none-eabi/12.3 rel1/bin/../lib/gcc/arm-none-eabi/12.3.1/thumb/v7ve+simd/hard\libgcc.a(_dvmd_tls.o)
                                 0xce (size before relaxing)
 .debug_line_str
                0x000000d6       0xe2 c:/program files (x86)/arm gnu toolchain arm-none-eabi/12.3 rel1/bin/../lib/gcc/arm-none-eabi/12.3.1/thumb/v7ve+simd/hard\libc_nano.a(libc_a-memchr.o)

Cross Reference Table

Symbol                                            File
ABT_STACK                                         build/obj/Drivers/startup_stm32mp135fxx_ca7.o
ADC1_IRQHandler                                   build/obj/Drivers/startup_stm32mp135fxx_ca7.o
ADC2_IRQHandler                                   build/obj/Drivers/startup_stm32mp135fxx_ca7.o
AXIERRIRQ_IRQHandler                              build/obj/Drivers/startup_stm32mp135fxx_ca7.o
BSP_Error_Handler                                 build/obj/Drivers/STM32MP13xx_DISCO/stm32mp13xx_disco.o
                                                  build/obj/Drivers/STM32MP13xx_DISCO/stm32mp13xx_disco_stpmic1.o
BSP_GetTick                                       build/obj/Drivers/STM32MP13xx_DISCO/stm32mp13xx_disco_bus.o
BSP_GetVersion                                    build/obj/Drivers/STM32MP13xx_DISCO/stm32mp13xx_disco.o
BSP_I2C1_DeInit                                   build/obj/Drivers/STM32MP13xx_DISCO/stm32mp13xx_disco_bus.o
BSP_I2C1_Init                                     build/obj/Drivers/STM32MP13xx_DISCO/stm32mp13xx_disco_bus.o
BSP_I2C1_IsReady                                  build/obj/Drivers/STM32MP13xx_DISCO/stm32mp13xx_disco_bus.o
BSP_I2C1_ReadReg                                  build/obj/Drivers/STM32MP13xx_DISCO/stm32mp13xx_disco_bus.o
BSP_I2C1_ReadReg16                                build/obj/Drivers/STM32MP13xx_DISCO/stm32mp13xx_disco_bus.o
BSP_I2C1_WriteReg                                 build/obj/Drivers/STM32MP13xx_DISCO/stm32mp13xx_disco_bus.o
BSP_I2C1_WriteReg16                               build/obj/Drivers/STM32MP13xx_DISCO/stm32mp13xx_disco_bus.o
BSP_I2C4_DeInit                                   build/obj/Drivers/STM32MP13xx_DISCO/stm32mp13xx_disco_bus.o
                                                  build/obj/Drivers/STM32MP13xx_DISCO/stm32mp13xx_disco_stpmic1.o
BSP_I2C4_Init                                     build/obj/Drivers/STM32MP13xx_DISCO/stm32mp13xx_disco_bus.o
                                                  build/obj/Drivers/STM32MP13xx_DISCO/stm32mp13xx_disco_stpmic1.o
BSP_I2C4_IsReady                                  build/obj/Drivers/STM32MP13xx_DISCO/stm32mp13xx_disco_bus.o
                                                  build/obj/Drivers/STM32MP13xx_DISCO/stm32mp13xx_disco_stpmic1.o
BSP_I2C4_ReadReg                                  build/obj/Drivers/STM32MP13xx_DISCO/stm32mp13xx_disco_bus.o
                                                  build/obj/Drivers/STM32MP13xx_DISCO/stm32mp13xx_disco_stpmic1.o
BSP_I2C4_ReadReg16                                build/obj/Drivers/STM32MP13xx_DISCO/stm32mp13xx_disco_bus.o
BSP_I2C4_WriteReg                                 build/obj/Drivers/STM32MP13xx_DISCO/stm32mp13xx_disco_bus.o
                                                  build/obj/Drivers/STM32MP13xx_DISCO/stm32mp13xx_disco_stpmic1.o
BSP_I2C4_WriteReg16                               build/obj/Drivers/STM32MP13xx_DISCO/stm32mp13xx_disco_bus.o
BSP_I2C5_DeInit                                   build/obj/Drivers/STM32MP13xx_DISCO/stm32mp13xx_disco_bus.o
BSP_I2C5_Init                                     build/obj/Drivers/STM32MP13xx_DISCO/stm32mp13xx_disco_bus.o
BSP_I2C5_IsReady                                  build/obj/Drivers/STM32MP13xx_DISCO/stm32mp13xx_disco_bus.o
BSP_I2C5_ReadReg                                  build/obj/Drivers/STM32MP13xx_DISCO/stm32mp13xx_disco_bus.o
BSP_I2C5_ReadReg16                                build/obj/Drivers/STM32MP13xx_DISCO/stm32mp13xx_disco_bus.o
BSP_I2C5_WriteReg                                 build/obj/Drivers/STM32MP13xx_DISCO/stm32mp13xx_disco_bus.o
BSP_I2C5_WriteReg16                               build/obj/Drivers/STM32MP13xx_DISCO/stm32mp13xx_disco_bus.o
BSP_LED_DeInit                                    build/obj/Drivers/STM32MP13xx_DISCO/stm32mp13xx_disco.o
BSP_LED_GetState                                  build/obj/Drivers/STM32MP13xx_DISCO/stm32mp13xx_disco.o
BSP_LED_Init                                      build/obj/Drivers/STM32MP13xx_DISCO/stm32mp13xx_disco.o
BSP_LED_Off                                       build/obj/Drivers/STM32MP13xx_DISCO/stm32mp13xx_disco.o
BSP_LED_On                                        build/obj/Drivers/STM32MP13xx_DISCO/stm32mp13xx_disco.o
BSP_LED_Toggle                                    build/obj/Drivers/STM32MP13xx_DISCO/stm32mp13xx_disco.o
BSP_PB_Callback                                   build/obj/Drivers/STM32MP13xx_DISCO/stm32mp13xx_disco.o
BSP_PB_DeInit                                     build/obj/Drivers/STM32MP13xx_DISCO/stm32mp13xx_disco.o
BSP_PB_GetState                                   build/obj/Drivers/STM32MP13xx_DISCO/stm32mp13xx_disco.o
BSP_PB_IRQHandler                                 build/obj/Drivers/STM32MP13xx_DISCO/stm32mp13xx_disco.o
BSP_PB_Init                                       build/obj/Drivers/STM32MP13xx_DISCO/stm32mp13xx_disco.o
BSP_PB_TAMPER_EXTI_LINE_6_IRQHandler              build/obj/Drivers/STM32MP13xx_DISCO/stm32mp13xx_disco.o
BSP_PB_USER2_EXTI_LINE_13_IRQHandler              build/obj/Drivers/STM32MP13xx_DISCO/stm32mp13xx_disco.o
BSP_PB_USER_EXTI_LINE_14_IRQHandler               build/obj/Drivers/STM32MP13xx_DISCO/stm32mp13xx_disco.o
BSP_PB_WAKEUP_EXTI_LINE_0_IRQHandler              build/obj/Drivers/STM32MP13xx_DISCO/stm32mp13xx_disco.o
BSP_PMIC_DeInit                                   build/obj/Drivers/STM32MP13xx_DISCO/stm32mp13xx_disco_stpmic1.o
BSP_PMIC_INTn_Callback                            build/obj/Drivers/STM32MP13xx_DISCO/stm32mp13xx_disco_stpmic1.o
BSP_PMIC_Init                                     build/obj/Drivers/STM32MP13xx_DISCO/stm32mp13xx_disco_stpmic1.o
                                                  build/obj/Src/main.o
BSP_PMIC_InitRegulators                           build/obj/Drivers/STM32MP13xx_DISCO/stm32mp13xx_disco_stpmic1.o
                                                  build/obj/Src/main.o
BSP_PMIC_Is_Device_Ready                          build/obj/Drivers/STM32MP13xx_DISCO/stm32mp13xx_disco_stpmic1.o
BSP_PMIC_PrepareLpLvStop                          build/obj/Drivers/STM32MP13xx_DISCO/stm32mp13xx_disco_stpmic1.o
BSP_PMIC_PrepareLpLvStop2                         build/obj/Drivers/STM32MP13xx_DISCO/stm32mp13xx_disco_stpmic1.o
BSP_PMIC_PrepareLpStop                            build/obj/Drivers/STM32MP13xx_DISCO/stm32mp13xx_disco_stpmic1.o
BSP_PMIC_PrepareStandby                           build/obj/Drivers/STM32MP13xx_DISCO/stm32mp13xx_disco_stpmic1.o
BSP_PMIC_PrepareStandbySelfRefresh                build/obj/Drivers/STM32MP13xx_DISCO/stm32mp13xx_disco_stpmic1.o
BSP_PMIC_SwitchOff                                build/obj/Drivers/STM32MP13xx_DISCO/stm32mp13xx_disco_stpmic1.o
COMMRX0_IRQHandler                                build/obj/Drivers/startup_stm32mp135fxx_ca7.o
COMMTX0_IRQHandler                                build/obj/Drivers/startup_stm32mp135fxx_ca7.o
CRYP1_IRQHandler                                  build/obj/Drivers/startup_stm32mp135fxx_ca7.o
DAbt_Handler                                      build/obj/Drivers/startup_stm32mp135fxx_ca7.o
DCMIPP_IRQHandler                                 build/obj/Drivers/startup_stm32mp135fxx_ca7.o
DDRPERFM_IRQHandler                               build/obj/Drivers/startup_stm32mp135fxx_ca7.o
DFSDM1_IRQHandler                                 build/obj/Drivers/startup_stm32mp135fxx_ca7.o
DFSDM2_IRQHandler                                 build/obj/Drivers/startup_stm32mp135fxx_ca7.o
DMA1_Stream0_IRQHandler                           build/obj/Drivers/startup_stm32mp135fxx_ca7.o
DMA1_Stream1_IRQHandler                           build/obj/Drivers/startup_stm32mp135fxx_ca7.o
DMA1_Stream2_IRQHandler                           build/obj/Drivers/startup_stm32mp135fxx_ca7.o
DMA1_Stream3_IRQHandler                           build/obj/Drivers/startup_stm32mp135fxx_ca7.o
DMA1_Stream4_IRQHandler                           build/obj/Drivers/startup_stm32mp135fxx_ca7.o
DMA1_Stream5_IRQHandler                           build/obj/Drivers/startup_stm32mp135fxx_ca7.o
DMA1_Stream6_IRQHandler                           build/obj/Drivers/startup_stm32mp135fxx_ca7.o
DMA1_Stream7_IRQHandler                           build/obj/Drivers/startup_stm32mp135fxx_ca7.o
DMA2_Stream0_IRQHandler                           build/obj/Drivers/startup_stm32mp135fxx_ca7.o
DMA2_Stream1_IRQHandler                           build/obj/Drivers/startup_stm32mp135fxx_ca7.o
DMA2_Stream2_IRQHandler                           build/obj/Drivers/startup_stm32mp135fxx_ca7.o
DMA2_Stream3_IRQHandler                           build/obj/Drivers/startup_stm32mp135fxx_ca7.o
DMA2_Stream4_IRQHandler                           build/obj/Drivers/startup_stm32mp135fxx_ca7.o
DMA2_Stream5_IRQHandler                           build/obj/Drivers/startup_stm32mp135fxx_ca7.o
DMA2_Stream6_IRQHandler                           build/obj/Drivers/startup_stm32mp135fxx_ca7.o
DMA2_Stream7_IRQHandler                           build/obj/Drivers/startup_stm32mp135fxx_ca7.o
DMA3_Stream0_IRQHandler                           build/obj/Drivers/startup_stm32mp135fxx_ca7.o
DMA3_Stream1_IRQHandler                           build/obj/Drivers/startup_stm32mp135fxx_ca7.o
DMA3_Stream2_IRQHandler                           build/obj/Drivers/startup_stm32mp135fxx_ca7.o
DMA3_Stream3_IRQHandler                           build/obj/Drivers/startup_stm32mp135fxx_ca7.o
DMA3_Stream4_IRQHandler                           build/obj/Drivers/startup_stm32mp135fxx_ca7.o
DMA3_Stream5_IRQHandler                           build/obj/Drivers/startup_stm32mp135fxx_ca7.o
DMA3_Stream6_IRQHandler                           build/obj/Drivers/startup_stm32mp135fxx_ca7.o
DMA3_Stream7_IRQHandler                           build/obj/Drivers/startup_stm32mp135fxx_ca7.o
DMAMUX1_OVR_IRQHandler                            build/obj/Drivers/startup_stm32mp135fxx_ca7.o
DMAMUX2_OVR_IRQHandler                            build/obj/Drivers/startup_stm32mp135fxx_ca7.o
DTS_IRQHandler                                    build/obj/Drivers/startup_stm32mp135fxx_ca7.o
Default_Handler                                   build/obj/Drivers/startup_stm32mp135fxx_ca7.o
ETH1_IRQHandler                                   build/obj/Drivers/startup_stm32mp135fxx_ca7.o
ETH1_LPI_IRQHandler                               build/obj/Drivers/startup_stm32mp135fxx_ca7.o
ETH1_WKUP_IRQHandler                              build/obj/Drivers/startup_stm32mp135fxx_ca7.o
ETH2_IRQHandler                                   build/obj/Drivers/startup_stm32mp135fxx_ca7.o
ETH2_LPI_IRQHandler                               build/obj/Drivers/startup_stm32mp135fxx_ca7.o
ETH2_WKUP_IRQHandler                              build/obj/Drivers/startup_stm32mp135fxx_ca7.o
EXTI0_IRQHandler                                  build/obj/Drivers/startup_stm32mp135fxx_ca7.o
EXTI10_IRQHandler                                 build/obj/Drivers/startup_stm32mp135fxx_ca7.o
EXTI11_IRQHandler                                 build/obj/Drivers/startup_stm32mp135fxx_ca7.o
EXTI12_IRQHandler                                 build/obj/Drivers/startup_stm32mp135fxx_ca7.o
EXTI13_IRQHandler                                 build/obj/Drivers/startup_stm32mp135fxx_ca7.o
EXTI14_IRQHandler                                 build/obj/Drivers/startup_stm32mp135fxx_ca7.o
EXTI15_IRQHandler                                 build/obj/Drivers/startup_stm32mp135fxx_ca7.o
EXTI1_IRQHandler                                  build/obj/Drivers/startup_stm32mp135fxx_ca7.o
EXTI2_IRQHandler                                  build/obj/Drivers/startup_stm32mp135fxx_ca7.o
EXTI3_IRQHandler                                  build/obj/Drivers/startup_stm32mp135fxx_ca7.o
EXTI4_IRQHandler                                  build/obj/Drivers/startup_stm32mp135fxx_ca7.o
EXTI5_IRQHandler                                  build/obj/Drivers/startup_stm32mp135fxx_ca7.o
EXTI6_IRQHandler                                  build/obj/Drivers/startup_stm32mp135fxx_ca7.o
EXTI7_IRQHandler                                  build/obj/Drivers/startup_stm32mp135fxx_ca7.o
EXTI8_IRQHandler                                  build/obj/Drivers/startup_stm32mp135fxx_ca7.o
EXTI9_IRQHandler                                  build/obj/Drivers/startup_stm32mp135fxx_ca7.o
Error_Handler                                     build/obj/Src/main.o
FDCAN1_IT0_IRQHandler                             build/obj/Drivers/startup_stm32mp135fxx_ca7.o
FDCAN1_IT1_IRQHandler                             build/obj/Drivers/startup_stm32mp135fxx_ca7.o
FDCAN2_IT0_IRQHandler                             build/obj/Drivers/startup_stm32mp135fxx_ca7.o
FDCAN2_IT1_IRQHandler                             build/obj/Drivers/startup_stm32mp135fxx_ca7.o
FDCAN_CAL_IRQHandler                              build/obj/Drivers/startup_stm32mp135fxx_ca7.o
FIQ_Handler                                       build/obj/Drivers/startup_stm32mp135fxx_ca7.o
FIQ_STACK                                         build/obj/Drivers/startup_stm32mp135fxx_ca7.o
FMC_IRQHandler                                    build/obj/Drivers/startup_stm32mp135fxx_ca7.o
HAL_DMAEx_ChangeMemory                            build/obj/Drivers/STM32MP13xx_HAL_Driver/Src/stm32mp13xx_hal_dma_ex.o
HAL_DMAEx_ConfigMuxRequestGenerator               build/obj/Drivers/STM32MP13xx_HAL_Driver/Src/stm32mp13xx_hal_dma_ex.o
HAL_DMAEx_ConfigMuxSync                           build/obj/Drivers/STM32MP13xx_HAL_Driver/Src/stm32mp13xx_hal_dma_ex.o
HAL_DMAEx_DisableMuxRequestGenerator              build/obj/Drivers/STM32MP13xx_HAL_Driver/Src/stm32mp13xx_hal_dma_ex.o
HAL_DMAEx_EnableMuxRequestGenerator               build/obj/Drivers/STM32MP13xx_HAL_Driver/Src/stm32mp13xx_hal_dma_ex.o
HAL_DMAEx_MUX_IRQHandler                          build/obj/Drivers/STM32MP13xx_HAL_Driver/Src/stm32mp13xx_hal_dma_ex.o
HAL_DMAEx_MultiBufferStart                        build/obj/Drivers/STM32MP13xx_HAL_Driver/Src/stm32mp13xx_hal_dma_ex.o
HAL_DMAEx_MultiBufferStart_IT                     build/obj/Drivers/STM32MP13xx_HAL_Driver/Src/stm32mp13xx_hal_dma_ex.o
HAL_DMA_Abort                                     build/obj/Drivers/STM32MP13xx_HAL_Driver/Src/stm32mp13xx_hal_dma.o
                                                  build/obj/Drivers/STM32MP13xx_HAL_Driver/Src/stm32mp13xx_hal_uart.o
HAL_DMA_Abort_IT                                  build/obj/Drivers/STM32MP13xx_HAL_Driver/Src/stm32mp13xx_hal_dma.o
                                                  build/obj/Drivers/STM32MP13xx_HAL_Driver/Src/stm32mp13xx_hal_uart.o
                                                  build/obj/Drivers/STM32MP13xx_HAL_Driver/Src/stm32mp13xx_hal_i2c.o
HAL_DMA_DeInit                                    build/obj/Drivers/STM32MP13xx_HAL_Driver/Src/stm32mp13xx_hal_dma.o
HAL_DMA_GetError                                  build/obj/Drivers/STM32MP13xx_HAL_Driver/Src/stm32mp13xx_hal_dma.o
                                                  build/obj/Drivers/STM32MP13xx_HAL_Driver/Src/stm32mp13xx_hal_uart.o
                                                  build/obj/Drivers/STM32MP13xx_HAL_Driver/Src/stm32mp13xx_hal_i2c.o
HAL_DMA_GetState                                  build/obj/Drivers/STM32MP13xx_HAL_Driver/Src/stm32mp13xx_hal_dma.o
                                                  build/obj/Drivers/STM32MP13xx_HAL_Driver/Src/stm32mp13xx_hal_i2c.o
HAL_DMA_IRQHandler                                build/obj/Drivers/STM32MP13xx_HAL_Driver/Src/stm32mp13xx_hal_dma.o
HAL_DMA_Init                                      build/obj/Drivers/STM32MP13xx_HAL_Driver/Src/stm32mp13xx_hal_dma.o
HAL_DMA_PollForTransfer                           build/obj/Drivers/STM32MP13xx_HAL_Driver/Src/stm32mp13xx_hal_dma.o
HAL_DMA_RegisterCallback                          build/obj/Drivers/STM32MP13xx_HAL_Driver/Src/stm32mp13xx_hal_dma.o
HAL_DMA_Start                                     build/obj/Drivers/STM32MP13xx_HAL_Driver/Src/stm32mp13xx_hal_dma.o
HAL_DMA_Start_IT                                  build/obj/Drivers/STM32MP13xx_HAL_Driver/Src/stm32mp13xx_hal_dma.o
                                                  build/obj/Drivers/STM32MP13xx_HAL_Driver/Src/stm32mp13xx_hal_uart.o
                                                  build/obj/Drivers/STM32MP13xx_HAL_Driver/Src/stm32mp13xx_hal_i2c.o
HAL_DMA_UnRegisterCallback                        build/obj/Drivers/STM32MP13xx_HAL_Driver/Src/stm32mp13xx_hal_dma.o
HAL_DeInit                                        build/obj/Drivers/STM32MP13xx_HAL_Driver/Src/stm32mp13xx_hal.o
HAL_Delay                                         build/obj/Drivers/STM32MP13xx_HAL_Driver/Src/stm32mp13xx_hal.o
                                                  build/obj/Drivers/STM32MP13xx_DISCO/stm32mp13xx_disco.o
                                                  build/obj/Src/main.o
HAL_DisableDBGLPMode                              build/obj/Drivers/STM32MP13xx_HAL_Driver/Src/stm32mp13xx_hal.o
HAL_DisableDBGWakeUp                              build/obj/Drivers/STM32MP13xx_HAL_Driver/Src/stm32mp13xx_hal.o
HAL_EXTI_ClearConfigLine                          build/obj/Drivers/STM32MP13xx_HAL_Driver/Src/stm32mp13xx_hal_exti.o
HAL_EXTI_ClearPending                             build/obj/Drivers/STM32MP13xx_HAL_Driver/Src/stm32mp13xx_hal_exti.o
HAL_EXTI_GenerateSWI                              build/obj/Drivers/STM32MP13xx_HAL_Driver/Src/stm32mp13xx_hal_exti.o
HAL_EXTI_GetConfigLine                            build/obj/Drivers/STM32MP13xx_HAL_Driver/Src/stm32mp13xx_hal_exti.o
HAL_EXTI_GetHandle                                build/obj/Drivers/STM32MP13xx_HAL_Driver/Src/stm32mp13xx_hal_exti.o
                                                  build/obj/Drivers/STM32MP13xx_DISCO/stm32mp13xx_disco.o
HAL_EXTI_GetPending                               build/obj/Drivers/STM32MP13xx_HAL_Driver/Src/stm32mp13xx_hal_exti.o
HAL_EXTI_IRQHandler                               build/obj/Drivers/STM32MP13xx_HAL_Driver/Src/stm32mp13xx_hal_exti.o
                                                  build/obj/Drivers/STM32MP13xx_DISCO/stm32mp13xx_disco.o
HAL_EXTI_RegisterCallback                         build/obj/Drivers/STM32MP13xx_HAL_Driver/Src/stm32mp13xx_hal_exti.o
                                                  build/obj/Drivers/STM32MP13xx_DISCO/stm32mp13xx_disco.o
HAL_EXTI_SetConfigLine                            build/obj/Drivers/STM32MP13xx_HAL_Driver/Src/stm32mp13xx_hal_exti.o
HAL_EnableDBGLPMode                               build/obj/Drivers/STM32MP13xx_HAL_Driver/Src/stm32mp13xx_hal.o
HAL_EnableDBGWakeUp                               build/obj/Drivers/STM32MP13xx_HAL_Driver/Src/stm32mp13xx_hal.o
HAL_GPIO_DeInit                                   build/obj/Drivers/STM32MP13xx_HAL_Driver/Src/stm32mp13xx_hal_gpio.o
                                                  build/obj/Drivers/STM32MP13xx_DISCO/stm32mp13xx_disco_stpmic1.o
                                                  build/obj/Drivers/STM32MP13xx_DISCO/stm32mp13xx_disco_bus.o
                                                  build/obj/Drivers/STM32MP13xx_DISCO/stm32mp13xx_disco.o
                                                  build/obj/Src/main.o
HAL_GPIO_EXTI_Falling_Callback                    build/obj/Drivers/STM32MP13xx_HAL_Driver/Src/stm32mp13xx_hal_gpio.o
HAL_GPIO_EXTI_IRQHandler                          build/obj/Drivers/STM32MP13xx_HAL_Driver/Src/stm32mp13xx_hal_gpio.o
                                                  build/obj/Drivers/STM32MP13xx_DISCO/stm32mp13xx_disco_stpmic1.o
HAL_GPIO_EXTI_Rising_Callback                     build/obj/Drivers/STM32MP13xx_HAL_Driver/Src/stm32mp13xx_hal_gpio.o
HAL_GPIO_Init                                     build/obj/Drivers/STM32MP13xx_HAL_Driver/Src/stm32mp13xx_hal_gpio.o
                                                  build/obj/Drivers/STM32MP13xx_DISCO/stm32mp13xx_disco_stpmic1.o
                                                  build/obj/Drivers/STM32MP13xx_DISCO/stm32mp13xx_disco_bus.o
                                                  build/obj/Drivers/STM32MP13xx_DISCO/stm32mp13xx_disco.o
                                                  build/obj/Src/main.o
HAL_GPIO_LockPin                                  build/obj/Drivers/STM32MP13xx_HAL_Driver/Src/stm32mp13xx_hal_gpio.o
HAL_GPIO_ReadPin                                  build/obj/Drivers/STM32MP13xx_HAL_Driver/Src/stm32mp13xx_hal_gpio.o
                                                  build/obj/Drivers/STM32MP13xx_DISCO/stm32mp13xx_disco.o
HAL_GPIO_TogglePin                                build/obj/Drivers/STM32MP13xx_HAL_Driver/Src/stm32mp13xx_hal_gpio.o
                                                  build/obj/Drivers/STM32MP13xx_DISCO/stm32mp13xx_disco.o
                                                  build/obj/Src/main.o
HAL_GPIO_WriteMultipleStatePin                    build/obj/Drivers/STM32MP13xx_HAL_Driver/Src/stm32mp13xx_hal_gpio.o
HAL_GPIO_WritePin                                 build/obj/Drivers/STM32MP13xx_HAL_Driver/Src/stm32mp13xx_hal_gpio.o
                                                  build/obj/Drivers/STM32MP13xx_DISCO/stm32mp13xx_disco.o
HAL_GetDEVID                                      build/obj/Drivers/STM32MP13xx_HAL_Driver/Src/stm32mp13xx_hal.o
HAL_GetHalVersion                                 build/obj/Drivers/STM32MP13xx_HAL_Driver/Src/stm32mp13xx_hal.o
HAL_GetREVID                                      build/obj/Drivers/STM32MP13xx_HAL_Driver/Src/stm32mp13xx_hal.o
HAL_GetTick                                       build/obj/Drivers/STM32MP13xx_HAL_Driver/Src/stm32mp13xx_hal.o
                                                  build/obj/Drivers/STM32MP13xx_DISCO/stm32mp13xx_disco_bus.o
                                                  build/obj/Drivers/STM32MP13xx_HAL_Driver/Src/stm32mp13xx_hal_uart_ex.o
                                                  build/obj/Drivers/STM32MP13xx_HAL_Driver/Src/stm32mp13xx_hal_uart.o
                                                  build/obj/Drivers/STM32MP13xx_HAL_Driver/Src/stm32mp13xx_hal_rcc_ex.o
                                                  build/obj/Drivers/STM32MP13xx_HAL_Driver/Src/stm32mp13xx_hal_rcc.o
                                                  build/obj/Drivers/STM32MP13xx_HAL_Driver/Src/stm32mp13xx_hal_i2c.o
                                                  build/obj/Drivers/STM32MP13xx_HAL_Driver/Src/stm32mp13xx_hal_dma.o
HAL_GetUIDw0                                      build/obj/Drivers/STM32MP13xx_HAL_Driver/Src/stm32mp13xx_hal.o
HAL_GetUIDw1                                      build/obj/Drivers/STM32MP13xx_HAL_Driver/Src/stm32mp13xx_hal.o
HAL_GetUIDw2                                      build/obj/Drivers/STM32MP13xx_HAL_Driver/Src/stm32mp13xx_hal.o
HAL_HalfDuplex_EnableReceiver                     build/obj/Drivers/STM32MP13xx_HAL_Driver/Src/stm32mp13xx_hal_uart.o
HAL_HalfDuplex_EnableTransmitter                  build/obj/Drivers/STM32MP13xx_HAL_Driver/Src/stm32mp13xx_hal_uart.o
HAL_HalfDuplex_Init                               build/obj/Drivers/STM32MP13xx_HAL_Driver/Src/stm32mp13xx_hal_uart.o
HAL_I2C_AbortCpltCallback                         build/obj/Drivers/STM32MP13xx_HAL_Driver/Src/stm32mp13xx_hal_i2c.o
HAL_I2C_AddrCallback                              build/obj/Drivers/STM32MP13xx_HAL_Driver/Src/stm32mp13xx_hal_i2c.o
HAL_I2C_DeInit                                    build/obj/Drivers/STM32MP13xx_HAL_Driver/Src/stm32mp13xx_hal_i2c.o
                                                  build/obj/Drivers/STM32MP13xx_DISCO/stm32mp13xx_disco_bus.o
HAL_I2C_DisableListen_IT                          build/obj/Drivers/STM32MP13xx_HAL_Driver/Src/stm32mp13xx_hal_i2c.o
HAL_I2C_ER_IRQHandler                             build/obj/Drivers/STM32MP13xx_HAL_Driver/Src/stm32mp13xx_hal_i2c.o
HAL_I2C_EV_IRQHandler                             build/obj/Drivers/STM32MP13xx_HAL_Driver/Src/stm32mp13xx_hal_i2c.o
HAL_I2C_EnableListen_IT                           build/obj/Drivers/STM32MP13xx_HAL_Driver/Src/stm32mp13xx_hal_i2c.o
HAL_I2C_ErrorCallback                             build/obj/Drivers/STM32MP13xx_HAL_Driver/Src/stm32mp13xx_hal_i2c.o
HAL_I2C_GetError                                  build/obj/Drivers/STM32MP13xx_HAL_Driver/Src/stm32mp13xx_hal_i2c.o
                                                  build/obj/Drivers/STM32MP13xx_DISCO/stm32mp13xx_disco_bus.o
HAL_I2C_GetMode                                   build/obj/Drivers/STM32MP13xx_HAL_Driver/Src/stm32mp13xx_hal_i2c.o
HAL_I2C_GetState                                  build/obj/Drivers/STM32MP13xx_HAL_Driver/Src/stm32mp13xx_hal_i2c.o
                                                  build/obj/Drivers/STM32MP13xx_DISCO/stm32mp13xx_disco_stpmic1.o
                                                  build/obj/Drivers/STM32MP13xx_DISCO/stm32mp13xx_disco_bus.o
HAL_I2C_Init                                      build/obj/Drivers/STM32MP13xx_HAL_Driver/Src/stm32mp13xx_hal_i2c.o
                                                  build/obj/Drivers/STM32MP13xx_DISCO/stm32mp13xx_disco_bus.o
HAL_I2C_IsDeviceReady                             build/obj/Drivers/STM32MP13xx_HAL_Driver/Src/stm32mp13xx_hal_i2c.o
                                                  build/obj/Drivers/STM32MP13xx_DISCO/stm32mp13xx_disco_bus.o
HAL_I2C_ListenCpltCallback                        build/obj/Drivers/STM32MP13xx_HAL_Driver/Src/stm32mp13xx_hal_i2c.o
HAL_I2C_MasterRxCpltCallback                      build/obj/Drivers/STM32MP13xx_HAL_Driver/Src/stm32mp13xx_hal_i2c.o
HAL_I2C_MasterTxCpltCallback                      build/obj/Drivers/STM32MP13xx_HAL_Driver/Src/stm32mp13xx_hal_i2c.o
HAL_I2C_Master_Abort_IT                           build/obj/Drivers/STM32MP13xx_HAL_Driver/Src/stm32mp13xx_hal_i2c.o
HAL_I2C_Master_Receive                            build/obj/Drivers/STM32MP13xx_HAL_Driver/Src/stm32mp13xx_hal_i2c.o
HAL_I2C_Master_Receive_DMA                        build/obj/Drivers/STM32MP13xx_HAL_Driver/Src/stm32mp13xx_hal_i2c.o
HAL_I2C_Master_Receive_IT                         build/obj/Drivers/STM32MP13xx_HAL_Driver/Src/stm32mp13xx_hal_i2c.o
HAL_I2C_Master_Seq_Receive_DMA                    build/obj/Drivers/STM32MP13xx_HAL_Driver/Src/stm32mp13xx_hal_i2c.o
HAL_I2C_Master_Seq_Receive_IT                     build/obj/Drivers/STM32MP13xx_HAL_Driver/Src/stm32mp13xx_hal_i2c.o
HAL_I2C_Master_Seq_Transmit_DMA                   build/obj/Drivers/STM32MP13xx_HAL_Driver/Src/stm32mp13xx_hal_i2c.o
HAL_I2C_Master_Seq_Transmit_IT                    build/obj/Drivers/STM32MP13xx_HAL_Driver/Src/stm32mp13xx_hal_i2c.o
HAL_I2C_Master_Transmit                           build/obj/Drivers/STM32MP13xx_HAL_Driver/Src/stm32mp13xx_hal_i2c.o
HAL_I2C_Master_Transmit_DMA                       build/obj/Drivers/STM32MP13xx_HAL_Driver/Src/stm32mp13xx_hal_i2c.o
HAL_I2C_Master_Transmit_IT                        build/obj/Drivers/STM32MP13xx_HAL_Driver/Src/stm32mp13xx_hal_i2c.o
HAL_I2C_MemRxCpltCallback                         build/obj/Drivers/STM32MP13xx_HAL_Driver/Src/stm32mp13xx_hal_i2c.o
HAL_I2C_MemTxCpltCallback                         build/obj/Drivers/STM32MP13xx_HAL_Driver/Src/stm32mp13xx_hal_i2c.o
HAL_I2C_Mem_Read                                  build/obj/Drivers/STM32MP13xx_HAL_Driver/Src/stm32mp13xx_hal_i2c.o
                                                  build/obj/Drivers/STM32MP13xx_DISCO/stm32mp13xx_disco_bus.o
HAL_I2C_Mem_Read_DMA                              build/obj/Drivers/STM32MP13xx_HAL_Driver/Src/stm32mp13xx_hal_i2c.o
HAL_I2C_Mem_Read_IT                               build/obj/Drivers/STM32MP13xx_HAL_Driver/Src/stm32mp13xx_hal_i2c.o
HAL_I2C_Mem_Write                                 build/obj/Drivers/STM32MP13xx_HAL_Driver/Src/stm32mp13xx_hal_i2c.o
                                                  build/obj/Drivers/STM32MP13xx_DISCO/stm32mp13xx_disco_bus.o
HAL_I2C_Mem_Write_DMA                             build/obj/Drivers/STM32MP13xx_HAL_Driver/Src/stm32mp13xx_hal_i2c.o
HAL_I2C_Mem_Write_IT                              build/obj/Drivers/STM32MP13xx_HAL_Driver/Src/stm32mp13xx_hal_i2c.o
HAL_I2C_MspDeInit                                 build/obj/Drivers/STM32MP13xx_HAL_Driver/Src/stm32mp13xx_hal_i2c.o
HAL_I2C_MspInit                                   build/obj/Drivers/STM32MP13xx_HAL_Driver/Src/stm32mp13xx_hal_i2c.o
HAL_I2C_SlaveRxCpltCallback                       build/obj/Drivers/STM32MP13xx_HAL_Driver/Src/stm32mp13xx_hal_i2c.o
HAL_I2C_SlaveTxCpltCallback                       build/obj/Drivers/STM32MP13xx_HAL_Driver/Src/stm32mp13xx_hal_i2c.o
HAL_I2C_Slave_Receive                             build/obj/Drivers/STM32MP13xx_HAL_Driver/Src/stm32mp13xx_hal_i2c.o
HAL_I2C_Slave_Receive_DMA                         build/obj/Drivers/STM32MP13xx_HAL_Driver/Src/stm32mp13xx_hal_i2c.o
HAL_I2C_Slave_Receive_IT                          build/obj/Drivers/STM32MP13xx_HAL_Driver/Src/stm32mp13xx_hal_i2c.o
HAL_I2C_Slave_Seq_Receive_DMA                     build/obj/Drivers/STM32MP13xx_HAL_Driver/Src/stm32mp13xx_hal_i2c.o
HAL_I2C_Slave_Seq_Receive_IT                      build/obj/Drivers/STM32MP13xx_HAL_Driver/Src/stm32mp13xx_hal_i2c.o
HAL_I2C_Slave_Seq_Transmit_DMA                    build/obj/Drivers/STM32MP13xx_HAL_Driver/Src/stm32mp13xx_hal_i2c.o
HAL_I2C_Slave_Seq_Transmit_IT                     build/obj/Drivers/STM32MP13xx_HAL_Driver/Src/stm32mp13xx_hal_i2c.o
HAL_I2C_Slave_Transmit                            build/obj/Drivers/STM32MP13xx_HAL_Driver/Src/stm32mp13xx_hal_i2c.o
HAL_I2C_Slave_Transmit_DMA                        build/obj/Drivers/STM32MP13xx_HAL_Driver/Src/stm32mp13xx_hal_i2c.o
HAL_I2C_Slave_Transmit_IT                         build/obj/Drivers/STM32MP13xx_HAL_Driver/Src/stm32mp13xx_hal_i2c.o
HAL_IncTick                                       build/obj/Drivers/STM32MP13xx_HAL_Driver/Src/stm32mp13xx_hal.o
                                                  build/obj/Drivers/system_stm32mp13xx_A7.o
HAL_Init                                          build/obj/Drivers/STM32MP13xx_HAL_Driver/Src/stm32mp13xx_hal.o
                                                  build/obj/Src/main.o
HAL_InitTick                                      build/obj/Drivers/STM32MP13xx_HAL_Driver/Src/stm32mp13xx_hal.o
                                                  build/obj/Drivers/STM32MP13xx_HAL_Driver/Src/stm32mp13xx_hal_rcc.o
HAL_LIN_Init                                      build/obj/Drivers/STM32MP13xx_HAL_Driver/Src/stm32mp13xx_hal_uart.o
HAL_LIN_SendBreak                                 build/obj/Drivers/STM32MP13xx_HAL_Driver/Src/stm32mp13xx_hal_uart.o
HAL_MspDeInit                                     build/obj/Drivers/STM32MP13xx_HAL_Driver/Src/stm32mp13xx_hal.o
HAL_MspInit                                       build/obj/Drivers/STM32MP13xx_HAL_Driver/Src/stm32mp13xx_hal.o
HAL_MultiProcessorEx_AddressLength_Set            build/obj/Drivers/STM32MP13xx_HAL_Driver/Src/stm32mp13xx_hal_uart_ex.o
HAL_MultiProcessor_DisableMuteMode                build/obj/Drivers/STM32MP13xx_HAL_Driver/Src/stm32mp13xx_hal_uart.o
HAL_MultiProcessor_EnableMuteMode                 build/obj/Drivers/STM32MP13xx_HAL_Driver/Src/stm32mp13xx_hal_uart.o
HAL_MultiProcessor_EnterMuteMode                  build/obj/Drivers/STM32MP13xx_HAL_Driver/Src/stm32mp13xx_hal_uart.o
HAL_MultiProcessor_Init                           build/obj/Drivers/STM32MP13xx_HAL_Driver/Src/stm32mp13xx_hal_uart.o
HAL_RCCEx_DisableLSECSS                           build/obj/Drivers/STM32MP13xx_HAL_Driver/Src/stm32mp13xx_hal_rcc_ex.o
                                                  build/obj/Drivers/STM32MP13xx_HAL_Driver/Src/stm32mp13xx_hal_rcc.o
HAL_RCCEx_EnableLSECSS                            build/obj/Drivers/STM32MP13xx_HAL_Driver/Src/stm32mp13xx_hal_rcc_ex.o
HAL_RCCEx_GetPeriphCLKConfig                      build/obj/Drivers/STM32MP13xx_HAL_Driver/Src/stm32mp13xx_hal_rcc_ex.o
HAL_RCCEx_GetPeriphCLKFreq                        build/obj/Drivers/STM32MP13xx_HAL_Driver/Src/stm32mp13xx_hal_rcc_ex.o
HAL_RCCEx_PeriphCLKConfig                         build/obj/Drivers/STM32MP13xx_HAL_Driver/Src/stm32mp13xx_hal_rcc_ex.o
                                                  build/obj/Src/main.o
HAL_RCC_Callback                                  build/obj/Drivers/STM32MP13xx_HAL_Driver/Src/stm32mp13xx_hal_rcc.o
HAL_RCC_ClockConfig                               build/obj/Drivers/STM32MP13xx_HAL_Driver/Src/stm32mp13xx_hal_rcc.o
                                                  build/obj/Src/main.o
HAL_RCC_DeInit                                    build/obj/Drivers/STM32MP13xx_HAL_Driver/Src/stm32mp13xx_hal_rcc.o
                                                  build/obj/Src/main.o
HAL_RCC_EnableHSECSS                              build/obj/Drivers/STM32MP13xx_HAL_Driver/Src/stm32mp13xx_hal_rcc.o
HAL_RCC_GetACLKFreq                               build/obj/Drivers/STM32MP13xx_HAL_Driver/Src/stm32mp13xx_hal_rcc.o
                                                  build/obj/Drivers/STM32MP13xx_HAL_Driver/Src/stm32mp13xx_hal_rcc_ex.o
HAL_RCC_GetAXISSFreq                              build/obj/Drivers/STM32MP13xx_HAL_Driver/Src/stm32mp13xx_hal_rcc.o
HAL_RCC_GetClockConfig                            build/obj/Drivers/STM32MP13xx_HAL_Driver/Src/stm32mp13xx_hal_rcc.o
HAL_RCC_GetFCLKFreq                               build/obj/Drivers/STM32MP13xx_HAL_Driver/Src/stm32mp13xx_hal_rcc.o
HAL_RCC_GetHCLK1Freq                              build/obj/Drivers/STM32MP13xx_HAL_Driver/Src/stm32mp13xx_hal_rcc.o
HAL_RCC_GetHCLK2Freq                              build/obj/Drivers/STM32MP13xx_HAL_Driver/Src/stm32mp13xx_hal_rcc.o
HAL_RCC_GetHCLK3Freq                              build/obj/Drivers/STM32MP13xx_HAL_Driver/Src/stm32mp13xx_hal_rcc.o
HAL_RCC_GetHCLK4Freq                              build/obj/Drivers/STM32MP13xx_HAL_Driver/Src/stm32mp13xx_hal_rcc.o
HAL_RCC_GetHCLK5Freq                              build/obj/Drivers/STM32MP13xx_HAL_Driver/Src/stm32mp13xx_hal_rcc.o
HAL_RCC_GetHCLK6Freq                              build/obj/Drivers/STM32MP13xx_HAL_Driver/Src/stm32mp13xx_hal_rcc.o
                                                  build/obj/Drivers/STM32MP13xx_HAL_Driver/Src/stm32mp13xx_hal_rcc_ex.o
HAL_RCC_GetMLAHBFreq                              build/obj/Drivers/STM32MP13xx_HAL_Driver/Src/stm32mp13xx_hal_rcc.o
                                                  build/obj/Drivers/STM32MP13xx_HAL_Driver/Src/stm32mp13xx_hal_rcc_ex.o
HAL_RCC_GetMLAHBSSFreq                            build/obj/Drivers/STM32MP13xx_HAL_Driver/Src/stm32mp13xx_hal_rcc.o
HAL_RCC_GetMLHCLKFreq                             build/obj/Drivers/STM32MP13xx_HAL_Driver/Src/stm32mp13xx_hal_rcc.o
                                                  build/obj/Drivers/STM32MP13xx_HAL_Driver/Src/stm32mp13xx_hal_rcc_ex.o
HAL_RCC_GetMPUSSFreq                              build/obj/Drivers/STM32MP13xx_HAL_Driver/Src/stm32mp13xx_hal_rcc.o
HAL_RCC_GetOscConfig                              build/obj/Drivers/STM32MP13xx_HAL_Driver/Src/stm32mp13xx_hal_rcc.o
HAL_RCC_GetPCLK1Freq                              build/obj/Drivers/STM32MP13xx_HAL_Driver/Src/stm32mp13xx_hal_rcc.o
                                                  build/obj/Drivers/STM32MP13xx_HAL_Driver/Src/stm32mp13xx_hal_uart.o
                                                  build/obj/Drivers/STM32MP13xx_HAL_Driver/Src/stm32mp13xx_hal_rcc_ex.o
HAL_RCC_GetPCLK2Freq                              build/obj/Drivers/STM32MP13xx_HAL_Driver/Src/stm32mp13xx_hal_rcc.o
                                                  build/obj/Drivers/STM32MP13xx_HAL_Driver/Src/stm32mp13xx_hal_uart.o
                                                  build/obj/Drivers/STM32MP13xx_HAL_Driver/Src/stm32mp13xx_hal_rcc_ex.o
HAL_RCC_GetPCLK3Freq                              build/obj/Drivers/STM32MP13xx_HAL_Driver/Src/stm32mp13xx_hal_rcc.o
                                                  build/obj/Drivers/STM32MP13xx_HAL_Driver/Src/stm32mp13xx_hal_rcc_ex.o
HAL_RCC_GetPCLK4Freq                              build/obj/Drivers/STM32MP13xx_HAL_Driver/Src/stm32mp13xx_hal_rcc.o
HAL_RCC_GetPCLK5Freq                              build/obj/Drivers/STM32MP13xx_HAL_Driver/Src/stm32mp13xx_hal_rcc.o
                                                  build/obj/Drivers/STM32MP13xx_HAL_Driver/Src/stm32mp13xx_hal_uart.o
HAL_RCC_GetPCLK6Freq                              build/obj/Drivers/STM32MP13xx_HAL_Driver/Src/stm32mp13xx_hal_rcc.o
                                                  build/obj/Drivers/STM32MP13xx_HAL_Driver/Src/stm32mp13xx_hal_uart.o
                                                  build/obj/Drivers/STM32MP13xx_HAL_Driver/Src/stm32mp13xx_hal_rcc_ex.o
HAL_RCC_GetPLL1ClockFreq                          build/obj/Drivers/STM32MP13xx_HAL_Driver/Src/stm32mp13xx_hal_rcc.o
HAL_RCC_GetPLL2ClockFreq                          build/obj/Drivers/STM32MP13xx_HAL_Driver/Src/stm32mp13xx_hal_rcc.o
                                                  build/obj/Drivers/STM32MP13xx_HAL_Driver/Src/stm32mp13xx_hal_rcc_ex.o
HAL_RCC_GetPLL3ClockFreq                          build/obj/Drivers/STM32MP13xx_HAL_Driver/Src/stm32mp13xx_hal_rcc.o
                                                  build/obj/Drivers/STM32MP13xx_HAL_Driver/Src/stm32mp13xx_hal_uart.o
                                                  build/obj/Drivers/STM32MP13xx_HAL_Driver/Src/stm32mp13xx_hal_rcc_ex.o
HAL_RCC_GetPLL4ClockFreq                          build/obj/Drivers/STM32MP13xx_HAL_Driver/Src/stm32mp13xx_hal_rcc.o
                                                  build/obj/Drivers/STM32MP13xx_HAL_Driver/Src/stm32mp13xx_hal_uart.o
                                                  build/obj/Drivers/STM32MP13xx_HAL_Driver/Src/stm32mp13xx_hal_rcc_ex.o
HAL_RCC_GetSystemCoreClockFreq                    build/obj/Drivers/STM32MP13xx_HAL_Driver/Src/stm32mp13xx_hal_rcc.o
                                                  build/obj/Drivers/STM32MP13xx_HAL_Driver/Src/stm32mp13xx_hal.o
HAL_RCC_HSEConfig                                 build/obj/Drivers/STM32MP13xx_HAL_Driver/Src/stm32mp13xx_hal_rcc.o
HAL_RCC_IRQHandler                                build/obj/Drivers/STM32MP13xx_HAL_Driver/Src/stm32mp13xx_hal_rcc.o
HAL_RCC_LSEConfig                                 build/obj/Drivers/STM32MP13xx_HAL_Driver/Src/stm32mp13xx_hal_rcc.o
HAL_RCC_MCOConfig                                 build/obj/Drivers/STM32MP13xx_HAL_Driver/Src/stm32mp13xx_hal_rcc.o
HAL_RCC_OscConfig                                 build/obj/Drivers/STM32MP13xx_HAL_Driver/Src/stm32mp13xx_hal_rcc.o
                                                  build/obj/Drivers/STM32MP13xx_HAL_Driver/Src/stm32mp13xx_hal_rcc_ex.o
                                                  build/obj/Src/main.o
HAL_RCC_WAKEUP_Callback                           build/obj/Drivers/STM32MP13xx_HAL_Driver/Src/stm32mp13xx_hal_rcc.o
HAL_RCC_WAKEUP_IRQHandler                         build/obj/Drivers/STM32MP13xx_HAL_Driver/Src/stm32mp13xx_hal_rcc.o
HAL_RS485Ex_Init                                  build/obj/Drivers/STM32MP13xx_HAL_Driver/Src/stm32mp13xx_hal_uart_ex.o
HAL_ResumeTick                                    build/obj/Drivers/STM32MP13xx_HAL_Driver/Src/stm32mp13xx_hal.o
HAL_SYSCFG_CompensationCodeConfig                 build/obj/Drivers/STM32MP13xx_HAL_Driver/Src/stm32mp13xx_hal.o
HAL_SYSCFG_CompensationCodeSelect                 build/obj/Drivers/STM32MP13xx_HAL_Driver/Src/stm32mp13xx_hal.o
HAL_SYSCFG_DisableBOOST                           build/obj/Drivers/STM32MP13xx_HAL_Driver/Src/stm32mp13xx_hal.o
HAL_SYSCFG_DisableCompensationCell                build/obj/Drivers/STM32MP13xx_HAL_Driver/Src/stm32mp13xx_hal.o
HAL_SYSCFG_DisableIOCompensation                  build/obj/Drivers/STM32MP13xx_HAL_Driver/Src/stm32mp13xx_hal.o
HAL_SYSCFG_DisableIOSpeedOptimize                 build/obj/Drivers/STM32MP13xx_HAL_Driver/Src/stm32mp13xx_hal.o
HAL_SYSCFG_DisableVREFBUF                         build/obj/Drivers/STM32MP13xx_HAL_Driver/Src/stm32mp13xx_hal.o
HAL_SYSCFG_ETHInterfaceSelect                     build/obj/Drivers/STM32MP13xx_HAL_Driver/Src/stm32mp13xx_hal.o
HAL_SYSCFG_EnableBOOST                            build/obj/Drivers/STM32MP13xx_HAL_Driver/Src/stm32mp13xx_hal.o
HAL_SYSCFG_EnableCompensationCell                 build/obj/Drivers/STM32MP13xx_HAL_Driver/Src/stm32mp13xx_hal.o
HAL_SYSCFG_EnableIOCompensation                   build/obj/Drivers/STM32MP13xx_HAL_Driver/Src/stm32mp13xx_hal.o
HAL_SYSCFG_EnableIOSpeedOptimize                  build/obj/Drivers/STM32MP13xx_HAL_Driver/Src/stm32mp13xx_hal.o
HAL_SYSCFG_EnableVREFBUF                          build/obj/Drivers/STM32MP13xx_HAL_Driver/Src/stm32mp13xx_hal.o
HAL_SYSCFG_VREFBUF_HighImpedanceConfig            build/obj/Drivers/STM32MP13xx_HAL_Driver/Src/stm32mp13xx_hal.o
HAL_SYSCFG_VREFBUF_TrimmingConfig                 build/obj/Drivers/STM32MP13xx_HAL_Driver/Src/stm32mp13xx_hal.o
HAL_SYSCFG_VREFBUF_VoltageScalingConfig           build/obj/Drivers/STM32MP13xx_HAL_Driver/Src/stm32mp13xx_hal.o
HAL_SuspendTick                                   build/obj/Drivers/STM32MP13xx_HAL_Driver/Src/stm32mp13xx_hal.o
HAL_UARTEx_DisableFifoMode                        build/obj/Drivers/STM32MP13xx_HAL_Driver/Src/stm32mp13xx_hal_uart_ex.o
                                                  build/obj/Src/main.o
HAL_UARTEx_DisableStopMode                        build/obj/Drivers/STM32MP13xx_HAL_Driver/Src/stm32mp13xx_hal_uart_ex.o
HAL_UARTEx_EnableFifoMode                         build/obj/Drivers/STM32MP13xx_HAL_Driver/Src/stm32mp13xx_hal_uart_ex.o
HAL_UARTEx_EnableStopMode                         build/obj/Drivers/STM32MP13xx_HAL_Driver/Src/stm32mp13xx_hal_uart_ex.o
HAL_UARTEx_GetRxEventType                         build/obj/Drivers/STM32MP13xx_HAL_Driver/Src/stm32mp13xx_hal_uart_ex.o
HAL_UARTEx_ReceiveToIdle                          build/obj/Drivers/STM32MP13xx_HAL_Driver/Src/stm32mp13xx_hal_uart_ex.o
HAL_UARTEx_ReceiveToIdle_DMA                      build/obj/Drivers/STM32MP13xx_HAL_Driver/Src/stm32mp13xx_hal_uart_ex.o
HAL_UARTEx_ReceiveToIdle_IT                       build/obj/Drivers/STM32MP13xx_HAL_Driver/Src/stm32mp13xx_hal_uart_ex.o
HAL_UARTEx_RxEventCallback                        build/obj/Drivers/STM32MP13xx_HAL_Driver/Src/stm32mp13xx_hal_uart.o
HAL_UARTEx_RxFifoFullCallback                     build/obj/Drivers/STM32MP13xx_HAL_Driver/Src/stm32mp13xx_hal_uart_ex.o
                                                  build/obj/Drivers/STM32MP13xx_HAL_Driver/Src/stm32mp13xx_hal_uart.o
HAL_UARTEx_SetRxFifoThreshold                     build/obj/Drivers/STM32MP13xx_HAL_Driver/Src/stm32mp13xx_hal_uart_ex.o
                                                  build/obj/Src/main.o
HAL_UARTEx_SetTxFifoThreshold                     build/obj/Drivers/STM32MP13xx_HAL_Driver/Src/stm32mp13xx_hal_uart_ex.o
                                                  build/obj/Src/main.o
HAL_UARTEx_StopModeWakeUpSourceConfig             build/obj/Drivers/STM32MP13xx_HAL_Driver/Src/stm32mp13xx_hal_uart_ex.o
HAL_UARTEx_TxFifoEmptyCallback                    build/obj/Drivers/STM32MP13xx_HAL_Driver/Src/stm32mp13xx_hal_uart_ex.o
                                                  build/obj/Drivers/STM32MP13xx_HAL_Driver/Src/stm32mp13xx_hal_uart.o
HAL_UARTEx_WakeupCallback                         build/obj/Drivers/STM32MP13xx_HAL_Driver/Src/stm32mp13xx_hal_uart_ex.o
                                                  build/obj/Drivers/STM32MP13xx_HAL_Driver/Src/stm32mp13xx_hal_uart.o
HAL_UART_Abort                                    build/obj/Drivers/STM32MP13xx_HAL_Driver/Src/stm32mp13xx_hal_uart.o
HAL_UART_AbortCpltCallback                        build/obj/Drivers/STM32MP13xx_HAL_Driver/Src/stm32mp13xx_hal_uart.o
HAL_UART_AbortReceive                             build/obj/Drivers/STM32MP13xx_HAL_Driver/Src/stm32mp13xx_hal_uart.o
HAL_UART_AbortReceiveCpltCallback                 build/obj/Drivers/STM32MP13xx_HAL_Driver/Src/stm32mp13xx_hal_uart.o
HAL_UART_AbortReceive_IT                          build/obj/Drivers/STM32MP13xx_HAL_Driver/Src/stm32mp13xx_hal_uart.o
HAL_UART_AbortTransmit                            build/obj/Drivers/STM32MP13xx_HAL_Driver/Src/stm32mp13xx_hal_uart.o
HAL_UART_AbortTransmitCpltCallback                build/obj/Drivers/STM32MP13xx_HAL_Driver/Src/stm32mp13xx_hal_uart.o
HAL_UART_AbortTransmit_IT                         build/obj/Drivers/STM32MP13xx_HAL_Driver/Src/stm32mp13xx_hal_uart.o
HAL_UART_Abort_IT                                 build/obj/Drivers/STM32MP13xx_HAL_Driver/Src/stm32mp13xx_hal_uart.o
HAL_UART_DMAPause                                 build/obj/Drivers/STM32MP13xx_HAL_Driver/Src/stm32mp13xx_hal_uart.o
HAL_UART_DMAResume                                build/obj/Drivers/STM32MP13xx_HAL_Driver/Src/stm32mp13xx_hal_uart.o
HAL_UART_DMAStop                                  build/obj/Drivers/STM32MP13xx_HAL_Driver/Src/stm32mp13xx_hal_uart.o
HAL_UART_DeInit                                   build/obj/Drivers/STM32MP13xx_HAL_Driver/Src/stm32mp13xx_hal_uart.o
HAL_UART_DisableReceiverTimeout                   build/obj/Drivers/STM32MP13xx_HAL_Driver/Src/stm32mp13xx_hal_uart.o
HAL_UART_EnableReceiverTimeout                    build/obj/Drivers/STM32MP13xx_HAL_Driver/Src/stm32mp13xx_hal_uart.o
HAL_UART_ErrorCallback                            build/obj/Drivers/STM32MP13xx_HAL_Driver/Src/stm32mp13xx_hal_uart.o
HAL_UART_GetError                                 build/obj/Drivers/STM32MP13xx_HAL_Driver/Src/stm32mp13xx_hal_uart.o
HAL_UART_GetState                                 build/obj/Drivers/STM32MP13xx_HAL_Driver/Src/stm32mp13xx_hal_uart.o
HAL_UART_IRQHandler                               build/obj/Drivers/STM32MP13xx_HAL_Driver/Src/stm32mp13xx_hal_uart.o
HAL_UART_Init                                     build/obj/Drivers/STM32MP13xx_HAL_Driver/Src/stm32mp13xx_hal_uart.o
                                                  build/obj/Src/main.o
HAL_UART_MspDeInit                                build/obj/Src/main.o
HAL_UART_MspInit                                  build/obj/Src/main.o
                                                  build/obj/Drivers/STM32MP13xx_HAL_Driver/Src/stm32mp13xx_hal_uart_ex.o
HAL_UART_Receive                                  build/obj/Drivers/STM32MP13xx_HAL_Driver/Src/stm32mp13xx_hal_uart.o
                                                  build/obj/Src/main.o
HAL_UART_Receive_DMA                              build/obj/Drivers/STM32MP13xx_HAL_Driver/Src/stm32mp13xx_hal_uart.o
HAL_UART_Receive_IT                               build/obj/Drivers/STM32MP13xx_HAL_Driver/Src/stm32mp13xx_hal_uart.o
HAL_UART_ReceiverTimeout_Config                   build/obj/Drivers/STM32MP13xx_HAL_Driver/Src/stm32mp13xx_hal_uart.o
HAL_UART_RxCpltCallback                           build/obj/Drivers/STM32MP13xx_HAL_Driver/Src/stm32mp13xx_hal_uart.o
HAL_UART_RxHalfCpltCallback                       build/obj/Drivers/STM32MP13xx_HAL_Driver/Src/stm32mp13xx_hal_uart.o
HAL_UART_Transmit                                 build/obj/Drivers/STM32MP13xx_HAL_Driver/Src/stm32mp13xx_hal_uart.o
                                                  build/obj/Src/main.o
HAL_UART_Transmit_DMA                             build/obj/Drivers/STM32MP13xx_HAL_Driver/Src/stm32mp13xx_hal_uart.o
HAL_UART_Transmit_IT                              build/obj/Drivers/STM32MP13xx_HAL_Driver/Src/stm32mp13xx_hal_uart.o
HAL_UART_TxCpltCallback                           build/obj/Drivers/STM32MP13xx_HAL_Driver/Src/stm32mp13xx_hal_uart.o
HAL_UART_TxHalfCpltCallback                       build/obj/Drivers/STM32MP13xx_HAL_Driver/Src/stm32mp13xx_hal_uart.o
HASH1_IRQHandler                                  build/obj/Drivers/startup_stm32mp135fxx_ca7.o
HypervisorTimer_IRQHandler                        build/obj/Drivers/startup_stm32mp135fxx_ca7.o
I2C1_ER_IRQHandler                                build/obj/Drivers/startup_stm32mp135fxx_ca7.o
I2C1_EV_IRQHandler                                build/obj/Drivers/startup_stm32mp135fxx_ca7.o
I2C2_ER_IRQHandler                                build/obj/Drivers/startup_stm32mp135fxx_ca7.o
I2C2_EV_IRQHandler                                build/obj/Drivers/startup_stm32mp135fxx_ca7.o
I2C3_ER_IRQHandler                                build/obj/Drivers/startup_stm32mp135fxx_ca7.o
I2C3_EV_IRQHandler                                build/obj/Drivers/startup_stm32mp135fxx_ca7.o
I2C4_ER_IRQHandler                                build/obj/Drivers/startup_stm32mp135fxx_ca7.o
I2C4_EV_IRQHandler                                build/obj/Drivers/startup_stm32mp135fxx_ca7.o
I2C5_ER_IRQHandler                                build/obj/Drivers/startup_stm32mp135fxx_ca7.o
I2C5_EV_IRQHandler                                build/obj/Drivers/startup_stm32mp135fxx_ca7.o
IRQ_ClearPending                                  build/obj/Drivers/CMSIS/Core_A/Source/irq_ctrl_gic.o
                                                  build/obj/Drivers/system_stm32mp13xx_A7.o
IRQ_Disable                                       build/obj/Drivers/CMSIS/Core_A/Source/irq_ctrl_gic.o
                                                  build/obj/Drivers/STM32MP13xx_DISCO/stm32mp13xx_disco_stpmic1.o
                                                  build/obj/Drivers/STM32MP13xx_DISCO/stm32mp13xx_disco_bus.o
                                                  build/obj/Drivers/STM32MP13xx_DISCO/stm32mp13xx_disco.o
IRQ_Enable                                        build/obj/Drivers/CMSIS/Core_A/Source/irq_ctrl_gic.o
                                                  build/obj/Drivers/STM32MP13xx_DISCO/stm32mp13xx_disco_stpmic1.o
                                                  build/obj/Drivers/STM32MP13xx_DISCO/stm32mp13xx_disco_bus.o
                                                  build/obj/Drivers/STM32MP13xx_DISCO/stm32mp13xx_disco.o
IRQ_EndOfInterrupt                                build/obj/Drivers/CMSIS/Core_A/Source/irq_ctrl_gic.o
                                                  build/obj/Drivers/system_stm32mp13xx_A7.o
IRQ_GetActiveFIQ                                  build/obj/Drivers/CMSIS/Core_A/Source/irq_ctrl_gic.o
IRQ_GetActiveIRQ                                  build/obj/Drivers/CMSIS/Core_A/Source/irq_ctrl_gic.o
                                                  build/obj/Drivers/system_stm32mp13xx_A7.o
IRQ_GetEnableState                                build/obj/Drivers/CMSIS/Core_A/Source/irq_ctrl_gic.o
IRQ_GetHandler                                    build/obj/Drivers/CMSIS/Core_A/Source/irq_ctrl_gic.o
                                                  build/obj/Drivers/system_stm32mp13xx_A7.o
IRQ_GetMode                                       build/obj/Drivers/CMSIS/Core_A/Source/irq_ctrl_gic.o
IRQ_GetPending                                    build/obj/Drivers/CMSIS/Core_A/Source/irq_ctrl_gic.o
IRQ_GetPriority                                   build/obj/Drivers/CMSIS/Core_A/Source/irq_ctrl_gic.o
IRQ_GetPriorityGroupBits                          build/obj/Drivers/CMSIS/Core_A/Source/irq_ctrl_gic.o
IRQ_GetPriorityMask                               build/obj/Drivers/CMSIS/Core_A/Source/irq_ctrl_gic.o
IRQ_Handler                                       build/obj/Drivers/system_stm32mp13xx_A7.o
IRQ_Initialize                                    build/obj/Drivers/CMSIS/Core_A/Source/irq_ctrl_gic.o
                                                  build/obj/Drivers/system_stm32mp13xx_A7.o
IRQ_STACK                                         build/obj/Drivers/startup_stm32mp135fxx_ca7.o
IRQ_SetHandler                                    build/obj/Drivers/CMSIS/Core_A/Source/irq_ctrl_gic.o
                                                  build/obj/Drivers/system_stm32mp13xx_A7.o
IRQ_SetMode                                       build/obj/Drivers/CMSIS/Core_A/Source/irq_ctrl_gic.o
IRQ_SetPending                                    build/obj/Drivers/CMSIS/Core_A/Source/irq_ctrl_gic.o
IRQ_SetPriority                                   build/obj/Drivers/CMSIS/Core_A/Source/irq_ctrl_gic.o
                                                  build/obj/Drivers/STM32MP13xx_DISCO/stm32mp13xx_disco_stpmic1.o
                                                  build/obj/Drivers/STM32MP13xx_DISCO/stm32mp13xx_disco_bus.o
                                                  build/obj/Drivers/STM32MP13xx_DISCO/stm32mp13xx_disco.o
IRQ_SetPriorityGroupBits                          build/obj/Drivers/CMSIS/Core_A/Source/irq_ctrl_gic.o
IRQ_SetPriorityMask                               build/obj/Drivers/CMSIS/Core_A/Source/irq_ctrl_gic.o
IRQ_Vector_Table                                  build/obj/Drivers/startup_stm32mp135fxx_ca7.o
                                                  build/obj/Drivers/system_stm32mp13xx_A7.o
IWDG1_IRQHandler                                  build/obj/Drivers/startup_stm32mp135fxx_ca7.o
IWDG2_IRQHandler                                  build/obj/Drivers/startup_stm32mp135fxx_ca7.o
LPTIM1_IRQHandler                                 build/obj/Drivers/startup_stm32mp135fxx_ca7.o
LPTIM2_IRQHandler                                 build/obj/Drivers/startup_stm32mp135fxx_ca7.o
LPTIM3_IRQHandler                                 build/obj/Drivers/startup_stm32mp135fxx_ca7.o
LPTIM4_IRQHandler                                 build/obj/Drivers/startup_stm32mp135fxx_ca7.o
LPTIM5_IRQHandler                                 build/obj/Drivers/startup_stm32mp135fxx_ca7.o
LTDC_ER_IRQHandler                                build/obj/Drivers/startup_stm32mp135fxx_ca7.o
LTDC_IRQHandler                                   build/obj/Drivers/startup_stm32mp135fxx_ca7.o
LTDC_SEC_ER_IRQHandler                            build/obj/Drivers/startup_stm32mp135fxx_ca7.o
LTDC_SEC_IRQHandler                               build/obj/Drivers/startup_stm32mp135fxx_ca7.o
Legacy_nFIQ_IRQHandler                            build/obj/Drivers/startup_stm32mp135fxx_ca7.o
Legacy_nIRQ_IRQHandler                            build/obj/Drivers/startup_stm32mp135fxx_ca7.o
MCE_IRQHandler                                    build/obj/Drivers/startup_stm32mp135fxx_ca7.o
MDMA_IRQHandler                                   build/obj/Drivers/startup_stm32mp135fxx_ca7.o
MDMA_SEC_IT_IRQHandler                            build/obj/Drivers/startup_stm32mp135fxx_ca7.o
MMU_CreateTranslationTable                        build/obj/Drivers/mmu_stm32mp13xx.o
MPU_WAKEUP_PIN_IRQHandler                         build/obj/Drivers/startup_stm32mp135fxx_ca7.o
MX_I2C1_Init                                      build/obj/Drivers/STM32MP13xx_DISCO/stm32mp13xx_disco_bus.o
MX_I2C4_Init                                      build/obj/Drivers/STM32MP13xx_DISCO/stm32mp13xx_disco_bus.o
MX_I2C5_Init                                      build/obj/Drivers/STM32MP13xx_DISCO/stm32mp13xx_disco_bus.o
NonSecurePhysicalTimer_IRQHandler                 build/obj/Drivers/startup_stm32mp135fxx_ca7.o
OTG_IRQHandler                                    build/obj/Drivers/startup_stm32mp135fxx_ca7.o
PAbt_Handler                                      build/obj/Drivers/startup_stm32mp135fxx_ca7.o
PKA_IRQHandler                                    build/obj/Drivers/startup_stm32mp135fxx_ca7.o
PMUIRQ0_IRQHandler                                build/obj/Drivers/startup_stm32mp135fxx_ca7.o
PVD_AVD_IRQHandler                                build/obj/Drivers/startup_stm32mp135fxx_ca7.o
PeriphCommonClock_Config                          build/obj/Src/main.o
QUADSPI_IRQHandler                                build/obj/Drivers/startup_stm32mp135fxx_ca7.o
RCCEx_PLL2_Config                                 build/obj/Drivers/STM32MP13xx_HAL_Driver/Src/stm32mp13xx_hal_rcc_ex.o
                                                  build/obj/Drivers/STM32MP13xx_HAL_Driver/Src/stm32mp13xx_hal_rcc.o
RCCEx_PLL3_Config                                 build/obj/Drivers/STM32MP13xx_HAL_Driver/Src/stm32mp13xx_hal_rcc_ex.o
                                                  build/obj/Drivers/STM32MP13xx_HAL_Driver/Src/stm32mp13xx_hal_rcc.o
RCCEx_PLL4_Config                                 build/obj/Drivers/STM32MP13xx_HAL_Driver/Src/stm32mp13xx_hal_rcc_ex.o
                                                  build/obj/Drivers/STM32MP13xx_HAL_Driver/Src/stm32mp13xx_hal_rcc.o
RCC_AXISSConfig                                   build/obj/Drivers/STM32MP13xx_HAL_Driver/Src/stm32mp13xx_hal_rcc.o
RCC_GetCKPERFreq                                  build/obj/Drivers/STM32MP13xx_HAL_Driver/Src/stm32mp13xx_hal_rcc.o
                                                  build/obj/Drivers/STM32MP13xx_HAL_Driver/Src/stm32mp13xx_hal_rcc_ex.o
RCC_IRQHandler                                    build/obj/Drivers/startup_stm32mp135fxx_ca7.o
RCC_MLAHBConfig                                   build/obj/Drivers/STM32MP13xx_HAL_Driver/Src/stm32mp13xx_hal_rcc.o
RCC_MPUConfig                                     build/obj/Drivers/STM32MP13xx_HAL_Driver/Src/stm32mp13xx_hal_rcc.o
RCC_PLL1_Config                                   build/obj/Drivers/STM32MP13xx_HAL_Driver/Src/stm32mp13xx_hal_rcc.o
RCC_WAKEUP_IRQHandler                             build/obj/Drivers/startup_stm32mp135fxx_ca7.o
RESERVED_IRQHandler                               build/obj/Drivers/startup_stm32mp135fxx_ca7.o
RNG1_IRQHandler                                   build/obj/Drivers/startup_stm32mp135fxx_ca7.o
RTC_TIMESTAMP_IRQHandler                          build/obj/Drivers/startup_stm32mp135fxx_ca7.o
RTC_TS_S_IRQHandler                               build/obj/Drivers/startup_stm32mp135fxx_ca7.o
RTC_WKUP_ALARM_IRQHandler                         build/obj/Drivers/startup_stm32mp135fxx_ca7.o
RTC_WKUP_ALARM_S_IRQHandler                       build/obj/Drivers/startup_stm32mp135fxx_ca7.o
Reset_Handler                                     build/obj/Drivers/startup_stm32mp135fxx_ca7.o
Rsvd_Handler                                      build/obj/Drivers/startup_stm32mp135fxx_ca7.o
SAES_IRQHandler                                   build/obj/Drivers/startup_stm32mp135fxx_ca7.o
SAI1_IRQHandler                                   build/obj/Drivers/startup_stm32mp135fxx_ca7.o
SAI2_IRQHandler                                   build/obj/Drivers/startup_stm32mp135fxx_ca7.o
SDMMC1_IRQHandler                                 build/obj/Drivers/startup_stm32mp135fxx_ca7.o
SDMMC2_IRQHandler                                 build/obj/Drivers/startup_stm32mp135fxx_ca7.o
SGI0_IRQHandler                                   build/obj/Drivers/startup_stm32mp135fxx_ca7.o
SGI10_IRQHandler                                  build/obj/Drivers/startup_stm32mp135fxx_ca7.o
SGI11_IRQHandler                                  build/obj/Drivers/startup_stm32mp135fxx_ca7.o
SGI12_IRQHandler                                  build/obj/Drivers/startup_stm32mp135fxx_ca7.o
SGI13_IRQHandler                                  build/obj/Drivers/startup_stm32mp135fxx_ca7.o
SGI14_IRQHandler                                  build/obj/Drivers/startup_stm32mp135fxx_ca7.o
SGI15_IRQHandler                                  build/obj/Drivers/startup_stm32mp135fxx_ca7.o
SGI1_IRQHandler                                   build/obj/Drivers/startup_stm32mp135fxx_ca7.o
SGI2_IRQHandler                                   build/obj/Drivers/startup_stm32mp135fxx_ca7.o
SGI3_IRQHandler                                   build/obj/Drivers/startup_stm32mp135fxx_ca7.o
SGI4_IRQHandler                                   build/obj/Drivers/startup_stm32mp135fxx_ca7.o
SGI5_IRQHandler                                   build/obj/Drivers/startup_stm32mp135fxx_ca7.o
SGI6_IRQHandler                                   build/obj/Drivers/startup_stm32mp135fxx_ca7.o
SGI7_IRQHandler                                   build/obj/Drivers/startup_stm32mp135fxx_ca7.o
SGI8_IRQHandler                                   build/obj/Drivers/startup_stm32mp135fxx_ca7.o
SGI9_IRQHandler                                   build/obj/Drivers/startup_stm32mp135fxx_ca7.o
SPDIF_RX_IRQHandler                               build/obj/Drivers/startup_stm32mp135fxx_ca7.o
SPI1_IRQHandler                                   build/obj/Drivers/startup_stm32mp135fxx_ca7.o
SPI2_IRQHandler                                   build/obj/Drivers/startup_stm32mp135fxx_ca7.o
SPI3_IRQHandler                                   build/obj/Drivers/startup_stm32mp135fxx_ca7.o
SPI4_IRQHandler                                   build/obj/Drivers/startup_stm32mp135fxx_ca7.o
SPI5_IRQHandler                                   build/obj/Drivers/startup_stm32mp135fxx_ca7.o
STPMU1_Disable_Interrupt                          build/obj/Drivers/STM32MP13xx_DISCO/stm32mp13xx_disco_stpmic1.o
STPMU1_Enable_Interrupt                           build/obj/Drivers/STM32MP13xx_DISCO/stm32mp13xx_disco_stpmic1.o
STPMU1_INTn_Callback                              build/obj/Drivers/STM32MP13xx_DISCO/stm32mp13xx_disco_stpmic1.o
STPMU1_IrqHandler                                 build/obj/Drivers/STM32MP13xx_DISCO/stm32mp13xx_disco_stpmic1.o
STPMU1_Is_Regulator_Enabled                       build/obj/Drivers/STM32MP13xx_DISCO/stm32mp13xx_disco_stpmic1.o
STPMU1_Register_Read                              build/obj/Drivers/STM32MP13xx_DISCO/stm32mp13xx_disco_stpmic1.o
STPMU1_Register_Update                            build/obj/Drivers/STM32MP13xx_DISCO/stm32mp13xx_disco_stpmic1.o
STPMU1_Register_Write                             build/obj/Drivers/STM32MP13xx_DISCO/stm32mp13xx_disco_stpmic1.o
STPMU1_Regulator_Disable                          build/obj/Drivers/STM32MP13xx_DISCO/stm32mp13xx_disco_stpmic1.o
STPMU1_Regulator_Enable                           build/obj/Drivers/STM32MP13xx_DISCO/stm32mp13xx_disco_stpmic1.o
STPMU1_Regulator_Voltage_Set                      build/obj/Drivers/STM32MP13xx_DISCO/stm32mp13xx_disco_stpmic1.o
STPMU1_Sw_Reset                                   build/obj/Drivers/STM32MP13xx_DISCO/stm32mp13xx_disco_stpmic1.o
SVC_Handler                                       build/obj/Drivers/startup_stm32mp135fxx_ca7.o
SVC_STACK                                         build/obj/Drivers/startup_stm32mp135fxx_ca7.o
SYS_STACK                                         build/obj/Drivers/startup_stm32mp135fxx_ca7.o
SecurePhysicalTimer_IRQHandler                    build/obj/Drivers/system_stm32mp13xx_A7.o
SystemClock_Config                                build/obj/Src/main.o
SystemCoreClock                                   build/obj/Drivers/system_stm32mp13xx_A7.o
                                                  build/obj/Drivers/STM32MP13xx_HAL_Driver/Src/stm32mp13xx_hal_rcc.o
                                                  build/obj/Drivers/STM32MP13xx_HAL_Driver/Src/stm32mp13xx_hal_dma.o
                                                  build/obj/Drivers/STM32MP13xx_HAL_Driver/Src/stm32mp13xx_hal.o
SystemCoreClockUpdate                             build/obj/Drivers/system_stm32mp13xx_A7.o
SystemInit                                        build/obj/Drivers/system_stm32mp13xx_A7.o
                                                  build/obj/Drivers/startup_stm32mp135fxx_ca7.o
SystemInit_Interrupts_SoftIRQn_Handler            build/obj/Drivers/system_stm32mp13xx_A7.o
SystemInit_cpu1                                   build/obj/Drivers/system_stm32mp13xx_A7.o
TAMP_IRQHandler                                   build/obj/Drivers/startup_stm32mp135fxx_ca7.o
TAMP_SIRQHandler                                  build/obj/Drivers/startup_stm32mp135fxx_ca7.o
TIM12_IRQHandler                                  build/obj/Drivers/startup_stm32mp135fxx_ca7.o
TIM13_IRQHandler                                  build/obj/Drivers/startup_stm32mp135fxx_ca7.o
TIM14_IRQHandler                                  build/obj/Drivers/startup_stm32mp135fxx_ca7.o
TIM15_IRQHandler                                  build/obj/Drivers/startup_stm32mp135fxx_ca7.o
TIM16_IRQHandler                                  build/obj/Drivers/startup_stm32mp135fxx_ca7.o
TIM17_IRQHandler                                  build/obj/Drivers/startup_stm32mp135fxx_ca7.o
TIM1_BRK_IRQHandler                               build/obj/Drivers/startup_stm32mp135fxx_ca7.o
TIM1_CC_IRQHandler                                build/obj/Drivers/startup_stm32mp135fxx_ca7.o
TIM1_TRG_COM_IRQHandler                           build/obj/Drivers/startup_stm32mp135fxx_ca7.o
TIM1_UP_IRQHandler                                build/obj/Drivers/startup_stm32mp135fxx_ca7.o
TIM2_IRQHandler                                   build/obj/Drivers/startup_stm32mp135fxx_ca7.o
TIM3_IRQHandler                                   build/obj/Drivers/startup_stm32mp135fxx_ca7.o
TIM4_IRQHandler                                   build/obj/Drivers/startup_stm32mp135fxx_ca7.o
TIM5_IRQHandler                                   build/obj/Drivers/startup_stm32mp135fxx_ca7.o
TIM6_IRQHandler                                   build/obj/Drivers/startup_stm32mp135fxx_ca7.o
TIM7_IRQHandler                                   build/obj/Drivers/startup_stm32mp135fxx_ca7.o
TIM8_BRK_IRQHandler                               build/obj/Drivers/startup_stm32mp135fxx_ca7.o
TIM8_CC_IRQHandler                                build/obj/Drivers/startup_stm32mp135fxx_ca7.o
TIM8_TRG_COM_IRQHandler                           build/obj/Drivers/startup_stm32mp135fxx_ca7.o
TIM8_UP_IRQHandler                                build/obj/Drivers/startup_stm32mp135fxx_ca7.o
TTB                                               build/obj/Drivers/mmu_stm32mp13xx.o
TZC_IT_IRQHandler                                 build/obj/Drivers/startup_stm32mp135fxx_ca7.o
UART4_IRQHandler                                  build/obj/Drivers/startup_stm32mp135fxx_ca7.o
UART5_IRQHandler                                  build/obj/Drivers/startup_stm32mp135fxx_ca7.o
UART7_IRQHandler                                  build/obj/Drivers/startup_stm32mp135fxx_ca7.o
UART8_IRQHandler                                  build/obj/Drivers/startup_stm32mp135fxx_ca7.o
UARTPrescTable                                    build/obj/Drivers/STM32MP13xx_HAL_Driver/Src/stm32mp13xx_hal_uart.o
UART_AdvFeatureConfig                             build/obj/Drivers/STM32MP13xx_HAL_Driver/Src/stm32mp13xx_hal_uart.o
                                                  build/obj/Drivers/STM32MP13xx_HAL_Driver/Src/stm32mp13xx_hal_uart_ex.o
UART_CheckIdleState                               build/obj/Drivers/STM32MP13xx_HAL_Driver/Src/stm32mp13xx_hal_uart.o
                                                  build/obj/Drivers/STM32MP13xx_HAL_Driver/Src/stm32mp13xx_hal_uart_ex.o
UART_SetConfig                                    build/obj/Drivers/STM32MP13xx_HAL_Driver/Src/stm32mp13xx_hal_uart.o
                                                  build/obj/Drivers/STM32MP13xx_HAL_Driver/Src/stm32mp13xx_hal_uart_ex.o
UART_Start_Receive_DMA                            build/obj/Drivers/STM32MP13xx_HAL_Driver/Src/stm32mp13xx_hal_uart.o
                                                  build/obj/Drivers/STM32MP13xx_HAL_Driver/Src/stm32mp13xx_hal_uart_ex.o
UART_Start_Receive_IT                             build/obj/Drivers/STM32MP13xx_HAL_Driver/Src/stm32mp13xx_hal_uart.o
                                                  build/obj/Drivers/STM32MP13xx_HAL_Driver/Src/stm32mp13xx_hal_uart_ex.o
UART_WaitOnFlagUntilTimeout                       build/obj/Drivers/STM32MP13xx_HAL_Driver/Src/stm32mp13xx_hal_uart.o
                                                  build/obj/Drivers/STM32MP13xx_HAL_Driver/Src/stm32mp13xx_hal_uart_ex.o
UND_STACK                                         build/obj/Drivers/startup_stm32mp135fxx_ca7.o
USART1_IRQHandler                                 build/obj/Drivers/startup_stm32mp135fxx_ca7.o
USART2_IRQHandler                                 build/obj/Drivers/startup_stm32mp135fxx_ca7.o
USART3_IRQHandler                                 build/obj/Drivers/startup_stm32mp135fxx_ca7.o
USART6_IRQHandler                                 build/obj/Drivers/startup_stm32mp135fxx_ca7.o
USBH_PORT1_IRQHandler                             build/obj/Drivers/startup_stm32mp135fxx_ca7.o
USBH_PORT2_IRQHandler                             build/obj/Drivers/startup_stm32mp135fxx_ca7.o
Undef_Handler                                     build/obj/Drivers/startup_stm32mp135fxx_ca7.o
Vectors                                           build/obj/Drivers/startup_stm32mp135fxx_ca7.o
VirtualMaintenanceInterrupt_IRQHandler            build/obj/Drivers/startup_stm32mp135fxx_ca7.o
VirtualTimer_IRQHandler                           build/obj/Drivers/startup_stm32mp135fxx_ca7.o
ZI_DATA                                           build/obj/Drivers/system_stm32mp13xx_A7.o
ZeroBss                                           build/obj/Drivers/system_stm32mp13xx_A7.o
__BSS_END__                                       build/obj/Drivers/system_stm32mp13xx_A7.o
__RO_END__                                        build/obj/Drivers/mmu_stm32mp13xx.o
__RO_START__                                      build/obj/Drivers/mmu_stm32mp13xx.o
__TEXT_END__                                      build/obj/Drivers/mmu_stm32mp13xx.o
__TEXT_START__                                    build/obj/Drivers/mmu_stm32mp13xx.o
__aeabi_idiv0                                     c:/program files (x86)/arm gnu toolchain arm-none-eabi/12.3 rel1/bin/../lib/gcc/arm-none-eabi/12.3.1/thumb/v7ve+simd/hard\libgcc.a(_dvmd_tls.o)
__aeabi_ldiv0                                     c:/program files (x86)/arm gnu toolchain arm-none-eabi/12.3 rel1/bin/../lib/gcc/arm-none-eabi/12.3.1/thumb/v7ve+simd/hard\libgcc.a(_dvmd_tls.o)
                                                  c:/program files (x86)/arm gnu toolchain arm-none-eabi/12.3 rel1/bin/../lib/gcc/arm-none-eabi/12.3.1/thumb/v7ve+simd/hard\libgcc.a(_aeabi_uldivmod.o)
__aeabi_uldivmod                                  c:/program files (x86)/arm gnu toolchain arm-none-eabi/12.3 rel1/bin/../lib/gcc/arm-none-eabi/12.3.1/thumb/v7ve+simd/hard\libgcc.a(_aeabi_uldivmod.o)
                                                  build/obj/Drivers/STM32MP13xx_HAL_Driver/Src/stm32mp13xx_hal.o
__env                                             build/obj/Drivers/syscalls.o
__errno                                           c:/program files (x86)/arm gnu toolchain arm-none-eabi/12.3 rel1/bin/../lib/gcc/arm-none-eabi/12.3.1/thumb/v7ve+simd/hard\libc_nano.a(libc_a-errno.o)
                                                  build/obj/Drivers/syscalls.o
__fp_lock_all                                     c:/program files (x86)/arm gnu toolchain arm-none-eabi/12.3 rel1/bin/../lib/gcc/arm-none-eabi/12.3.1/thumb/v7ve+simd/hard\libc_nano.a(libc_a-findfp.o)
__fp_unlock_all                                   c:/program files (x86)/arm gnu toolchain arm-none-eabi/12.3 rel1/bin/../lib/gcc/arm-none-eabi/12.3.1/thumb/v7ve+simd/hard\libc_nano.a(libc_a-findfp.o)
__init_array_end                                  c:/program files (x86)/arm gnu toolchain arm-none-eabi/12.3 rel1/bin/../lib/gcc/arm-none-eabi/12.3.1/thumb/v7ve+simd/hard\libc_nano.a(libc_a-init.o)
__init_array_start                                c:/program files (x86)/arm gnu toolchain arm-none-eabi/12.3 rel1/bin/../lib/gcc/arm-none-eabi/12.3.1/thumb/v7ve+simd/hard\libc_nano.a(libc_a-init.o)
__io_getchar                                      build/obj/Src/main.o
                                                  build/obj/Drivers/syscalls.o
__io_putchar                                      build/obj/Src/main.o
                                                  build/obj/Drivers/syscalls.o
__libc_init_array                                 c:/program files (x86)/arm gnu toolchain arm-none-eabi/12.3 rel1/bin/../lib/gcc/arm-none-eabi/12.3.1/thumb/v7ve+simd/hard\libc_nano.a(libc_a-init.o)
                                                  build/obj/Drivers/startup_stm32mp135fxx_ca7.o
__lock___arc4random_mutex                         c:/program files (x86)/arm gnu toolchain arm-none-eabi/12.3 rel1/bin/../lib/gcc/arm-none-eabi/12.3.1/thumb/v7ve+simd/hard\libc_nano.a(libc_a-lock.o)
__lock___at_quick_exit_mutex                      c:/program files (x86)/arm gnu toolchain arm-none-eabi/12.3 rel1/bin/../lib/gcc/arm-none-eabi/12.3.1/thumb/v7ve+simd/hard\libc_nano.a(libc_a-lock.o)
__lock___atexit_recursive_mutex                   c:/program files (x86)/arm gnu toolchain arm-none-eabi/12.3 rel1/bin/../lib/gcc/arm-none-eabi/12.3.1/thumb/v7ve+simd/hard\libc_nano.a(libc_a-lock.o)
__lock___dd_hash_mutex                            c:/program files (x86)/arm gnu toolchain arm-none-eabi/12.3 rel1/bin/../lib/gcc/arm-none-eabi/12.3.1/thumb/v7ve+simd/hard\libc_nano.a(libc_a-lock.o)
__lock___env_recursive_mutex                      c:/program files (x86)/arm gnu toolchain arm-none-eabi/12.3 rel1/bin/../lib/gcc/arm-none-eabi/12.3.1/thumb/v7ve+simd/hard\libc_nano.a(libc_a-lock.o)
__lock___malloc_recursive_mutex                   c:/program files (x86)/arm gnu toolchain arm-none-eabi/12.3 rel1/bin/../lib/gcc/arm-none-eabi/12.3.1/thumb/v7ve+simd/hard\libc_nano.a(libc_a-lock.o)
                                                  c:/program files (x86)/arm gnu toolchain arm-none-eabi/12.3 rel1/bin/../lib/gcc/arm-none-eabi/12.3.1/thumb/v7ve+simd/hard\libc_nano.a(libc_a-mlock.o)
__lock___sfp_recursive_mutex                      c:/program files (x86)/arm gnu toolchain arm-none-eabi/12.3 rel1/bin/../lib/gcc/arm-none-eabi/12.3.1/thumb/v7ve+simd/hard\libc_nano.a(libc_a-lock.o)
                                                  c:/program files (x86)/arm gnu toolchain arm-none-eabi/12.3 rel1/bin/../lib/gcc/arm-none-eabi/12.3.1/thumb/v7ve+simd/hard\libc_nano.a(libc_a-findfp.o)
__lock___tz_mutex                                 c:/program files (x86)/arm gnu toolchain arm-none-eabi/12.3 rel1/bin/../lib/gcc/arm-none-eabi/12.3.1/thumb/v7ve+simd/hard\libc_nano.a(libc_a-lock.o)
__malloc_free_list                                c:/program files (x86)/arm gnu toolchain arm-none-eabi/12.3 rel1/bin/../lib/gcc/arm-none-eabi/12.3.1/thumb/v7ve+simd/hard\libc_nano.a(libc_a-mallocr.o)
                                                  c:/program files (x86)/arm gnu toolchain arm-none-eabi/12.3 rel1/bin/../lib/gcc/arm-none-eabi/12.3.1/thumb/v7ve+simd/hard\libc_nano.a(libc_a-freer.o)
__malloc_lock                                     c:/program files (x86)/arm gnu toolchain arm-none-eabi/12.3 rel1/bin/../lib/gcc/arm-none-eabi/12.3.1/thumb/v7ve+simd/hard\libc_nano.a(libc_a-mlock.o)
                                                  c:/program files (x86)/arm gnu toolchain arm-none-eabi/12.3 rel1/bin/../lib/gcc/arm-none-eabi/12.3.1/thumb/v7ve+simd/hard\libc_nano.a(libc_a-mallocr.o)
                                                  c:/program files (x86)/arm gnu toolchain arm-none-eabi/12.3 rel1/bin/../lib/gcc/arm-none-eabi/12.3.1/thumb/v7ve+simd/hard\libc_nano.a(libc_a-freer.o)
__malloc_sbrk_start                               c:/program files (x86)/arm gnu toolchain arm-none-eabi/12.3 rel1/bin/../lib/gcc/arm-none-eabi/12.3.1/thumb/v7ve+simd/hard\libc_nano.a(libc_a-mallocr.o)
__malloc_unlock                                   c:/program files (x86)/arm gnu toolchain arm-none-eabi/12.3 rel1/bin/../lib/gcc/arm-none-eabi/12.3.1/thumb/v7ve+simd/hard\libc_nano.a(libc_a-mlock.o)
                                                  c:/program files (x86)/arm gnu toolchain arm-none-eabi/12.3 rel1/bin/../lib/gcc/arm-none-eabi/12.3.1/thumb/v7ve+simd/hard\libc_nano.a(libc_a-mallocr.o)
                                                  c:/program files (x86)/arm gnu toolchain arm-none-eabi/12.3 rel1/bin/../lib/gcc/arm-none-eabi/12.3.1/thumb/v7ve+simd/hard\libc_nano.a(libc_a-freer.o)
__preinit_array_end                               c:/program files (x86)/arm gnu toolchain arm-none-eabi/12.3 rel1/bin/../lib/gcc/arm-none-eabi/12.3.1/thumb/v7ve+simd/hard\libc_nano.a(libc_a-init.o)
__preinit_array_start                             c:/program files (x86)/arm gnu toolchain arm-none-eabi/12.3 rel1/bin/../lib/gcc/arm-none-eabi/12.3.1/thumb/v7ve+simd/hard\libc_nano.a(libc_a-init.o)
__retarget_lock_acquire                           c:/program files (x86)/arm gnu toolchain arm-none-eabi/12.3 rel1/bin/../lib/gcc/arm-none-eabi/12.3.1/thumb/v7ve+simd/hard\libc_nano.a(libc_a-lock.o)
__retarget_lock_acquire_recursive                 c:/program files (x86)/arm gnu toolchain arm-none-eabi/12.3 rel1/bin/../lib/gcc/arm-none-eabi/12.3.1/thumb/v7ve+simd/hard\libc_nano.a(libc_a-lock.o)
                                                  c:/program files (x86)/arm gnu toolchain arm-none-eabi/12.3 rel1/bin/../lib/gcc/arm-none-eabi/12.3.1/thumb/v7ve+simd/hard\libc_nano.a(libc_a-fflush.o)
                                                  c:/program files (x86)/arm gnu toolchain arm-none-eabi/12.3 rel1/bin/../lib/gcc/arm-none-eabi/12.3.1/thumb/v7ve+simd/hard\libc_nano.a(libc_a-mlock.o)
                                                  c:/program files (x86)/arm gnu toolchain arm-none-eabi/12.3 rel1/bin/../lib/gcc/arm-none-eabi/12.3.1/thumb/v7ve+simd/hard\libc_nano.a(libc_a-findfp.o)
                                                  c:/program files (x86)/arm gnu toolchain arm-none-eabi/12.3 rel1/bin/../lib/gcc/arm-none-eabi/12.3.1/thumb/v7ve+simd/hard\libc_nano.a(libc_a-nano-vfprintf.o)
__retarget_lock_close                             c:/program files (x86)/arm gnu toolchain arm-none-eabi/12.3 rel1/bin/../lib/gcc/arm-none-eabi/12.3.1/thumb/v7ve+simd/hard\libc_nano.a(libc_a-lock.o)
__retarget_lock_close_recursive                   c:/program files (x86)/arm gnu toolchain arm-none-eabi/12.3 rel1/bin/../lib/gcc/arm-none-eabi/12.3.1/thumb/v7ve+simd/hard\libc_nano.a(libc_a-lock.o)
__retarget_lock_init                              c:/program files (x86)/arm gnu toolchain arm-none-eabi/12.3 rel1/bin/../lib/gcc/arm-none-eabi/12.3.1/thumb/v7ve+simd/hard\libc_nano.a(libc_a-lock.o)
__retarget_lock_init_recursive                    c:/program files (x86)/arm gnu toolchain arm-none-eabi/12.3 rel1/bin/../lib/gcc/arm-none-eabi/12.3.1/thumb/v7ve+simd/hard\libc_nano.a(libc_a-lock.o)
                                                  c:/program files (x86)/arm gnu toolchain arm-none-eabi/12.3 rel1/bin/../lib/gcc/arm-none-eabi/12.3.1/thumb/v7ve+simd/hard\libc_nano.a(libc_a-findfp.o)
__retarget_lock_release                           c:/program files (x86)/arm gnu toolchain arm-none-eabi/12.3 rel1/bin/../lib/gcc/arm-none-eabi/12.3.1/thumb/v7ve+simd/hard\libc_nano.a(libc_a-lock.o)
__retarget_lock_release_recursive                 c:/program files (x86)/arm gnu toolchain arm-none-eabi/12.3 rel1/bin/../lib/gcc/arm-none-eabi/12.3.1/thumb/v7ve+simd/hard\libc_nano.a(libc_a-lock.o)
                                                  c:/program files (x86)/arm gnu toolchain arm-none-eabi/12.3 rel1/bin/../lib/gcc/arm-none-eabi/12.3.1/thumb/v7ve+simd/hard\libc_nano.a(libc_a-fflush.o)
                                                  c:/program files (x86)/arm gnu toolchain arm-none-eabi/12.3 rel1/bin/../lib/gcc/arm-none-eabi/12.3.1/thumb/v7ve+simd/hard\libc_nano.a(libc_a-mlock.o)
                                                  c:/program files (x86)/arm gnu toolchain arm-none-eabi/12.3 rel1/bin/../lib/gcc/arm-none-eabi/12.3.1/thumb/v7ve+simd/hard\libc_nano.a(libc_a-findfp.o)
                                                  c:/program files (x86)/arm gnu toolchain arm-none-eabi/12.3 rel1/bin/../lib/gcc/arm-none-eabi/12.3.1/thumb/v7ve+simd/hard\libc_nano.a(libc_a-nano-vfprintf.o)
__retarget_lock_try_acquire                       c:/program files (x86)/arm gnu toolchain arm-none-eabi/12.3 rel1/bin/../lib/gcc/arm-none-eabi/12.3.1/thumb/v7ve+simd/hard\libc_nano.a(libc_a-lock.o)
__retarget_lock_try_acquire_recursive             c:/program files (x86)/arm gnu toolchain arm-none-eabi/12.3 rel1/bin/../lib/gcc/arm-none-eabi/12.3.1/thumb/v7ve+simd/hard\libc_nano.a(libc_a-lock.o)
__sclose                                          c:/program files (x86)/arm gnu toolchain arm-none-eabi/12.3 rel1/bin/../lib/gcc/arm-none-eabi/12.3.1/thumb/v7ve+simd/hard\libc_nano.a(libc_a-stdio.o)
                                                  c:/program files (x86)/arm gnu toolchain arm-none-eabi/12.3 rel1/bin/../lib/gcc/arm-none-eabi/12.3.1/thumb/v7ve+simd/hard\libc_nano.a(libc_a-findfp.o)
__seofread                                        c:/program files (x86)/arm gnu toolchain arm-none-eabi/12.3 rel1/bin/../lib/gcc/arm-none-eabi/12.3.1/thumb/v7ve+simd/hard\libc_nano.a(libc_a-stdio.o)
__sf                                              c:/program files (x86)/arm gnu toolchain arm-none-eabi/12.3 rel1/bin/../lib/gcc/arm-none-eabi/12.3.1/thumb/v7ve+simd/hard\libc_nano.a(libc_a-findfp.o)
                                                  c:/program files (x86)/arm gnu toolchain arm-none-eabi/12.3 rel1/bin/../lib/gcc/arm-none-eabi/12.3.1/thumb/v7ve+simd/hard\libc_nano.a(libc_a-impure.o)
__sflush_r                                        c:/program files (x86)/arm gnu toolchain arm-none-eabi/12.3 rel1/bin/../lib/gcc/arm-none-eabi/12.3.1/thumb/v7ve+simd/hard\libc_nano.a(libc_a-fflush.o)
__sfp                                             c:/program files (x86)/arm gnu toolchain arm-none-eabi/12.3 rel1/bin/../lib/gcc/arm-none-eabi/12.3.1/thumb/v7ve+simd/hard\libc_nano.a(libc_a-findfp.o)
__sfp_lock_acquire                                c:/program files (x86)/arm gnu toolchain arm-none-eabi/12.3 rel1/bin/../lib/gcc/arm-none-eabi/12.3.1/thumb/v7ve+simd/hard\libc_nano.a(libc_a-findfp.o)
__sfp_lock_release                                c:/program files (x86)/arm gnu toolchain arm-none-eabi/12.3 rel1/bin/../lib/gcc/arm-none-eabi/12.3.1/thumb/v7ve+simd/hard\libc_nano.a(libc_a-findfp.o)
__sfputs_r                                        c:/program files (x86)/arm gnu toolchain arm-none-eabi/12.3 rel1/bin/../lib/gcc/arm-none-eabi/12.3.1/thumb/v7ve+simd/hard\libc_nano.a(libc_a-nano-vfprintf.o)
__sfvwrite_r                                      c:/program files (x86)/arm gnu toolchain arm-none-eabi/12.3 rel1/bin/../lib/gcc/arm-none-eabi/12.3.1/thumb/v7ve+simd/hard\libc_nano.a(libc_a-fvwrite.o)
                                                  c:/program files (x86)/arm gnu toolchain arm-none-eabi/12.3 rel1/bin/../lib/gcc/arm-none-eabi/12.3.1/thumb/v7ve+simd/hard\libc_nano.a(libc_a-nano-vfprintf.o)
__sglue                                           c:/program files (x86)/arm gnu toolchain arm-none-eabi/12.3 rel1/bin/../lib/gcc/arm-none-eabi/12.3.1/thumb/v7ve+simd/hard\libc_nano.a(libc_a-findfp.o)
                                                  c:/program files (x86)/arm gnu toolchain arm-none-eabi/12.3 rel1/bin/../lib/gcc/arm-none-eabi/12.3.1/thumb/v7ve+simd/hard\libc_nano.a(libc_a-fflush.o)
__sinit                                           c:/program files (x86)/arm gnu toolchain arm-none-eabi/12.3 rel1/bin/../lib/gcc/arm-none-eabi/12.3.1/thumb/v7ve+simd/hard\libc_nano.a(libc_a-findfp.o)
                                                  c:/program files (x86)/arm gnu toolchain arm-none-eabi/12.3 rel1/bin/../lib/gcc/arm-none-eabi/12.3.1/thumb/v7ve+simd/hard\libc_nano.a(libc_a-fflush.o)
                                                  c:/program files (x86)/arm gnu toolchain arm-none-eabi/12.3 rel1/bin/../lib/gcc/arm-none-eabi/12.3.1/thumb/v7ve+simd/hard\libc_nano.a(libc_a-wsetup.o)
                                                  c:/program files (x86)/arm gnu toolchain arm-none-eabi/12.3 rel1/bin/../lib/gcc/arm-none-eabi/12.3.1/thumb/v7ve+simd/hard\libc_nano.a(libc_a-wbuf.o)
                                                  c:/program files (x86)/arm gnu toolchain arm-none-eabi/12.3 rel1/bin/../lib/gcc/arm-none-eabi/12.3.1/thumb/v7ve+simd/hard\libc_nano.a(libc_a-nano-vfprintf.o)
__smakebuf_r                                      c:/program files (x86)/arm gnu toolchain arm-none-eabi/12.3 rel1/bin/../lib/gcc/arm-none-eabi/12.3.1/thumb/v7ve+simd/hard\libc_nano.a(libc_a-makebuf.o)
                                                  c:/program files (x86)/arm gnu toolchain arm-none-eabi/12.3 rel1/bin/../lib/gcc/arm-none-eabi/12.3.1/thumb/v7ve+simd/hard\libc_nano.a(libc_a-wsetup.o)
__sprint_r                                        c:/program files (x86)/arm gnu toolchain arm-none-eabi/12.3 rel1/bin/../lib/gcc/arm-none-eabi/12.3.1/thumb/v7ve+simd/hard\libc_nano.a(libc_a-nano-vfprintf.o)
__sread                                           c:/program files (x86)/arm gnu toolchain arm-none-eabi/12.3 rel1/bin/../lib/gcc/arm-none-eabi/12.3.1/thumb/v7ve+simd/hard\libc_nano.a(libc_a-stdio.o)
                                                  c:/program files (x86)/arm gnu toolchain arm-none-eabi/12.3 rel1/bin/../lib/gcc/arm-none-eabi/12.3.1/thumb/v7ve+simd/hard\libc_nano.a(libc_a-findfp.o)
__sseek                                           c:/program files (x86)/arm gnu toolchain arm-none-eabi/12.3 rel1/bin/../lib/gcc/arm-none-eabi/12.3.1/thumb/v7ve+simd/hard\libc_nano.a(libc_a-stdio.o)
                                                  c:/program files (x86)/arm gnu toolchain arm-none-eabi/12.3 rel1/bin/../lib/gcc/arm-none-eabi/12.3.1/thumb/v7ve+simd/hard\libc_nano.a(libc_a-findfp.o)
__stdio_exit_handler                              c:/program files (x86)/arm gnu toolchain arm-none-eabi/12.3 rel1/bin/../lib/gcc/arm-none-eabi/12.3.1/thumb/v7ve+simd/hard\libc_nano.a(libc_a-findfp.o)
__swbuf                                           c:/program files (x86)/arm gnu toolchain arm-none-eabi/12.3 rel1/bin/../lib/gcc/arm-none-eabi/12.3.1/thumb/v7ve+simd/hard\libc_nano.a(libc_a-wbuf.o)
__swbuf_r                                         c:/program files (x86)/arm gnu toolchain arm-none-eabi/12.3 rel1/bin/../lib/gcc/arm-none-eabi/12.3.1/thumb/v7ve+simd/hard\libc_nano.a(libc_a-wbuf.o)
                                                  c:/program files (x86)/arm gnu toolchain arm-none-eabi/12.3 rel1/bin/../lib/gcc/arm-none-eabi/12.3.1/thumb/v7ve+simd/hard\libc_nano.a(libc_a-nano-vfprintf.o)
__swhatbuf_r                                      c:/program files (x86)/arm gnu toolchain arm-none-eabi/12.3 rel1/bin/../lib/gcc/arm-none-eabi/12.3.1/thumb/v7ve+simd/hard\libc_nano.a(libc_a-makebuf.o)
__swrite                                          c:/program files (x86)/arm gnu toolchain arm-none-eabi/12.3 rel1/bin/../lib/gcc/arm-none-eabi/12.3.1/thumb/v7ve+simd/hard\libc_nano.a(libc_a-stdio.o)
                                                  c:/program files (x86)/arm gnu toolchain arm-none-eabi/12.3 rel1/bin/../lib/gcc/arm-none-eabi/12.3.1/thumb/v7ve+simd/hard\libc_nano.a(libc_a-findfp.o)
__swsetup_r                                       c:/program files (x86)/arm gnu toolchain arm-none-eabi/12.3 rel1/bin/../lib/gcc/arm-none-eabi/12.3.1/thumb/v7ve+simd/hard\libc_nano.a(libc_a-wsetup.o)
                                                  c:/program files (x86)/arm gnu toolchain arm-none-eabi/12.3 rel1/bin/../lib/gcc/arm-none-eabi/12.3.1/thumb/v7ve+simd/hard\libc_nano.a(libc_a-wbuf.o)
                                                  c:/program files (x86)/arm gnu toolchain arm-none-eabi/12.3 rel1/bin/../lib/gcc/arm-none-eabi/12.3.1/thumb/v7ve+simd/hard\libc_nano.a(libc_a-fvwrite.o)
                                                  c:/program files (x86)/arm gnu toolchain arm-none-eabi/12.3 rel1/bin/../lib/gcc/arm-none-eabi/12.3.1/thumb/v7ve+simd/hard\libc_nano.a(libc_a-nano-vfprintf.o)
__udivmoddi4                                      c:/program files (x86)/arm gnu toolchain arm-none-eabi/12.3 rel1/bin/../lib/gcc/arm-none-eabi/12.3.1/thumb/v7ve+simd/hard\libgcc.a(_udivmoddi4.o)
                                                  c:/program files (x86)/arm gnu toolchain arm-none-eabi/12.3 rel1/bin/../lib/gcc/arm-none-eabi/12.3.1/thumb/v7ve+simd/hard\libgcc.a(_aeabi_uldivmod.o)
_close                                            build/obj/Drivers/syscalls.o
                                                  c:/program files (x86)/arm gnu toolchain arm-none-eabi/12.3 rel1/bin/../lib/gcc/arm-none-eabi/12.3.1/thumb/v7ve+simd/hard\libc_nano.a(libc_a-closer.o)
_close_r                                          c:/program files (x86)/arm gnu toolchain arm-none-eabi/12.3 rel1/bin/../lib/gcc/arm-none-eabi/12.3.1/thumb/v7ve+simd/hard\libc_nano.a(libc_a-closer.o)
                                                  c:/program files (x86)/arm gnu toolchain arm-none-eabi/12.3 rel1/bin/../lib/gcc/arm-none-eabi/12.3.1/thumb/v7ve+simd/hard\libc_nano.a(libc_a-stdio.o)
_execve                                           build/obj/Drivers/syscalls.o
_exit                                             build/obj/Drivers/syscalls.o
_fflush_r                                         c:/program files (x86)/arm gnu toolchain arm-none-eabi/12.3 rel1/bin/../lib/gcc/arm-none-eabi/12.3.1/thumb/v7ve+simd/hard\libc_nano.a(libc_a-fflush.o)
                                                  c:/program files (x86)/arm gnu toolchain arm-none-eabi/12.3 rel1/bin/../lib/gcc/arm-none-eabi/12.3.1/thumb/v7ve+simd/hard\libc_nano.a(libc_a-wbuf.o)
                                                  c:/program files (x86)/arm gnu toolchain arm-none-eabi/12.3 rel1/bin/../lib/gcc/arm-none-eabi/12.3.1/thumb/v7ve+simd/hard\libc_nano.a(libc_a-fvwrite.o)
                                                  c:/program files (x86)/arm gnu toolchain arm-none-eabi/12.3 rel1/bin/../lib/gcc/arm-none-eabi/12.3.1/thumb/v7ve+simd/hard\libc_nano.a(libc_a-findfp.o)
_fork                                             build/obj/Drivers/syscalls.o
_free_r                                           c:/program files (x86)/arm gnu toolchain arm-none-eabi/12.3 rel1/bin/../lib/gcc/arm-none-eabi/12.3.1/thumb/v7ve+simd/hard\libc_nano.a(libc_a-freer.o)
                                                  c:/program files (x86)/arm gnu toolchain arm-none-eabi/12.3 rel1/bin/../lib/gcc/arm-none-eabi/12.3.1/thumb/v7ve+simd/hard\libc_nano.a(libc_a-fflush.o)
                                                  c:/program files (x86)/arm gnu toolchain arm-none-eabi/12.3 rel1/bin/../lib/gcc/arm-none-eabi/12.3.1/thumb/v7ve+simd/hard\libc_nano.a(libc_a-reallocr.o)
                                                  c:/program files (x86)/arm gnu toolchain arm-none-eabi/12.3 rel1/bin/../lib/gcc/arm-none-eabi/12.3.1/thumb/v7ve+simd/hard\libc_nano.a(libc_a-reent.o)
                                                  c:/program files (x86)/arm gnu toolchain arm-none-eabi/12.3 rel1/bin/../lib/gcc/arm-none-eabi/12.3.1/thumb/v7ve+simd/hard\libc_nano.a(libc_a-wsetup.o)
                                                  c:/program files (x86)/arm gnu toolchain arm-none-eabi/12.3 rel1/bin/../lib/gcc/arm-none-eabi/12.3.1/thumb/v7ve+simd/hard\libc_nano.a(libc_a-fvwrite.o)
_fstat                                            build/obj/Drivers/syscalls.o
                                                  c:/program files (x86)/arm gnu toolchain arm-none-eabi/12.3 rel1/bin/../lib/gcc/arm-none-eabi/12.3.1/thumb/v7ve+simd/hard\libc_nano.a(libc_a-fstatr.o)
_fstat_r                                          c:/program files (x86)/arm gnu toolchain arm-none-eabi/12.3 rel1/bin/../lib/gcc/arm-none-eabi/12.3.1/thumb/v7ve+simd/hard\libc_nano.a(libc_a-fstatr.o)
                                                  c:/program files (x86)/arm gnu toolchain arm-none-eabi/12.3 rel1/bin/../lib/gcc/arm-none-eabi/12.3.1/thumb/v7ve+simd/hard\libc_nano.a(libc_a-makebuf.o)
_fwalk_sglue                                      c:/program files (x86)/arm gnu toolchain arm-none-eabi/12.3 rel1/bin/../lib/gcc/arm-none-eabi/12.3.1/thumb/v7ve+simd/hard\libc_nano.a(libc_a-fwalk.o)
                                                  c:/program files (x86)/arm gnu toolchain arm-none-eabi/12.3 rel1/bin/../lib/gcc/arm-none-eabi/12.3.1/thumb/v7ve+simd/hard\libc_nano.a(libc_a-fflush.o)
                                                  c:/program files (x86)/arm gnu toolchain arm-none-eabi/12.3 rel1/bin/../lib/gcc/arm-none-eabi/12.3.1/thumb/v7ve+simd/hard\libc_nano.a(libc_a-findfp.o)
_getpid                                           build/obj/Drivers/syscalls.o
_impure_data                                      c:/program files (x86)/arm gnu toolchain arm-none-eabi/12.3 rel1/bin/../lib/gcc/arm-none-eabi/12.3.1/thumb/v7ve+simd/hard\libc_nano.a(libc_a-impure.o)
                                                  c:/program files (x86)/arm gnu toolchain arm-none-eabi/12.3 rel1/bin/../lib/gcc/arm-none-eabi/12.3.1/thumb/v7ve+simd/hard\libc_nano.a(libc_a-fflush.o)
                                                  c:/program files (x86)/arm gnu toolchain arm-none-eabi/12.3 rel1/bin/../lib/gcc/arm-none-eabi/12.3.1/thumb/v7ve+simd/hard\libc_nano.a(libc_a-findfp.o)
_impure_ptr                                       c:/program files (x86)/arm gnu toolchain arm-none-eabi/12.3 rel1/bin/../lib/gcc/arm-none-eabi/12.3.1/thumb/v7ve+simd/hard\libc_nano.a(libc_a-impure.o)
                                                  c:/program files (x86)/arm gnu toolchain arm-none-eabi/12.3 rel1/bin/../lib/gcc/arm-none-eabi/12.3.1/thumb/v7ve+simd/hard\libc_nano.a(libc_a-fflush.o)
                                                  c:/program files (x86)/arm gnu toolchain arm-none-eabi/12.3 rel1/bin/../lib/gcc/arm-none-eabi/12.3.1/thumb/v7ve+simd/hard\libc_nano.a(libc_a-reent.o)
                                                  c:/program files (x86)/arm gnu toolchain arm-none-eabi/12.3 rel1/bin/../lib/gcc/arm-none-eabi/12.3.1/thumb/v7ve+simd/hard\libc_nano.a(libc_a-wsetup.o)
                                                  c:/program files (x86)/arm gnu toolchain arm-none-eabi/12.3 rel1/bin/../lib/gcc/arm-none-eabi/12.3.1/thumb/v7ve+simd/hard\libc_nano.a(libc_a-wbuf.o)
                                                  c:/program files (x86)/arm gnu toolchain arm-none-eabi/12.3 rel1/bin/../lib/gcc/arm-none-eabi/12.3.1/thumb/v7ve+simd/hard\libc_nano.a(libc_a-nano-vfprintf.o)
                                                  c:/program files (x86)/arm gnu toolchain arm-none-eabi/12.3 rel1/bin/../lib/gcc/arm-none-eabi/12.3.1/thumb/v7ve+simd/hard\libc_nano.a(libc_a-errno.o)
                                                  c:/program files (x86)/arm gnu toolchain arm-none-eabi/12.3 rel1/bin/../lib/gcc/arm-none-eabi/12.3.1/thumb/v7ve+simd/hard\libc_nano.a(libc_a-printf.o)
_init                                             build/obj/Drivers/syscalls.o
                                                  c:/program files (x86)/arm gnu toolchain arm-none-eabi/12.3 rel1/bin/../lib/gcc/arm-none-eabi/12.3.1/thumb/v7ve+simd/hard\libc_nano.a(libc_a-init.o)
_iprintf_r                                        c:/program files (x86)/arm gnu toolchain arm-none-eabi/12.3 rel1/bin/../lib/gcc/arm-none-eabi/12.3.1/thumb/v7ve+simd/hard\libc_nano.a(libc_a-printf.o)
_isatty                                           build/obj/Drivers/syscalls.o
                                                  c:/program files (x86)/arm gnu toolchain arm-none-eabi/12.3 rel1/bin/../lib/gcc/arm-none-eabi/12.3.1/thumb/v7ve+simd/hard\libc_nano.a(libc_a-isattyr.o)
_isatty_r                                         c:/program files (x86)/arm gnu toolchain arm-none-eabi/12.3 rel1/bin/../lib/gcc/arm-none-eabi/12.3.1/thumb/v7ve+simd/hard\libc_nano.a(libc_a-isattyr.o)
                                                  c:/program files (x86)/arm gnu toolchain arm-none-eabi/12.3 rel1/bin/../lib/gcc/arm-none-eabi/12.3.1/thumb/v7ve+simd/hard\libc_nano.a(libc_a-makebuf.o)
_kill                                             build/obj/Drivers/syscalls.o
_link                                             build/obj/Drivers/syscalls.o
_lseek                                            build/obj/Drivers/syscalls.o
                                                  c:/program files (x86)/arm gnu toolchain arm-none-eabi/12.3 rel1/bin/../lib/gcc/arm-none-eabi/12.3.1/thumb/v7ve+simd/hard\libc_nano.a(libc_a-lseekr.o)
_lseek_r                                          c:/program files (x86)/arm gnu toolchain arm-none-eabi/12.3 rel1/bin/../lib/gcc/arm-none-eabi/12.3.1/thumb/v7ve+simd/hard\libc_nano.a(libc_a-lseekr.o)
                                                  c:/program files (x86)/arm gnu toolchain arm-none-eabi/12.3 rel1/bin/../lib/gcc/arm-none-eabi/12.3.1/thumb/v7ve+simd/hard\libc_nano.a(libc_a-stdio.o)
_malloc_r                                         c:/program files (x86)/arm gnu toolchain arm-none-eabi/12.3 rel1/bin/../lib/gcc/arm-none-eabi/12.3.1/thumb/v7ve+simd/hard\libc_nano.a(libc_a-mallocr.o)
                                                  c:/program files (x86)/arm gnu toolchain arm-none-eabi/12.3 rel1/bin/../lib/gcc/arm-none-eabi/12.3.1/thumb/v7ve+simd/hard\libc_nano.a(libc_a-makebuf.o)
                                                  c:/program files (x86)/arm gnu toolchain arm-none-eabi/12.3 rel1/bin/../lib/gcc/arm-none-eabi/12.3.1/thumb/v7ve+simd/hard\libc_nano.a(libc_a-reallocr.o)
                                                  c:/program files (x86)/arm gnu toolchain arm-none-eabi/12.3 rel1/bin/../lib/gcc/arm-none-eabi/12.3.1/thumb/v7ve+simd/hard\libc_nano.a(libc_a-fvwrite.o)
                                                  c:/program files (x86)/arm gnu toolchain arm-none-eabi/12.3 rel1/bin/../lib/gcc/arm-none-eabi/12.3.1/thumb/v7ve+simd/hard\libc_nano.a(libc_a-findfp.o)
_malloc_usable_size_r                             c:/program files (x86)/arm gnu toolchain arm-none-eabi/12.3 rel1/bin/../lib/gcc/arm-none-eabi/12.3.1/thumb/v7ve+simd/hard\libc_nano.a(libc_a-msizer.o)
                                                  c:/program files (x86)/arm gnu toolchain arm-none-eabi/12.3 rel1/bin/../lib/gcc/arm-none-eabi/12.3.1/thumb/v7ve+simd/hard\libc_nano.a(libc_a-reallocr.o)
_open                                             build/obj/Drivers/syscalls.o
_printf_common                                    c:/program files (x86)/arm gnu toolchain arm-none-eabi/12.3 rel1/bin/../lib/gcc/arm-none-eabi/12.3.1/thumb/v7ve+simd/hard\libc_nano.a(libc_a-nano-vfprintf_i.o)
_printf_float                                     c:/program files (x86)/arm gnu toolchain arm-none-eabi/12.3 rel1/bin/../lib/gcc/arm-none-eabi/12.3.1/thumb/v7ve+simd/hard\libc_nano.a(libc_a-nano-vfprintf.o)
_printf_i                                         c:/program files (x86)/arm gnu toolchain arm-none-eabi/12.3 rel1/bin/../lib/gcc/arm-none-eabi/12.3.1/thumb/v7ve+simd/hard\libc_nano.a(libc_a-nano-vfprintf_i.o)
                                                  c:/program files (x86)/arm gnu toolchain arm-none-eabi/12.3 rel1/bin/../lib/gcc/arm-none-eabi/12.3.1/thumb/v7ve+simd/hard\libc_nano.a(libc_a-nano-vfprintf.o)
_printf_r                                         c:/program files (x86)/arm gnu toolchain arm-none-eabi/12.3 rel1/bin/../lib/gcc/arm-none-eabi/12.3.1/thumb/v7ve+simd/hard\libc_nano.a(libc_a-printf.o)
_read                                             build/obj/Drivers/syscalls.o
                                                  c:/program files (x86)/arm gnu toolchain arm-none-eabi/12.3 rel1/bin/../lib/gcc/arm-none-eabi/12.3.1/thumb/v7ve+simd/hard\libc_nano.a(libc_a-readr.o)
_read_r                                           c:/program files (x86)/arm gnu toolchain arm-none-eabi/12.3 rel1/bin/../lib/gcc/arm-none-eabi/12.3.1/thumb/v7ve+simd/hard\libc_nano.a(libc_a-readr.o)
                                                  c:/program files (x86)/arm gnu toolchain arm-none-eabi/12.3 rel1/bin/../lib/gcc/arm-none-eabi/12.3.1/thumb/v7ve+simd/hard\libc_nano.a(libc_a-stdio.o)
_realloc_r                                        c:/program files (x86)/arm gnu toolchain arm-none-eabi/12.3 rel1/bin/../lib/gcc/arm-none-eabi/12.3.1/thumb/v7ve+simd/hard\libc_nano.a(libc_a-reallocr.o)
                                                  c:/program files (x86)/arm gnu toolchain arm-none-eabi/12.3 rel1/bin/../lib/gcc/arm-none-eabi/12.3.1/thumb/v7ve+simd/hard\libc_nano.a(libc_a-fvwrite.o)
_reclaim_reent                                    c:/program files (x86)/arm gnu toolchain arm-none-eabi/12.3 rel1/bin/../lib/gcc/arm-none-eabi/12.3.1/thumb/v7ve+simd/hard\libc_nano.a(libc_a-reent.o)
_sbrk                                             c:/program files (x86)/arm gnu toolchain arm-none-eabi/12.3 rel1/bin/../lib/gcc/arm-none-eabi/12.3.1/thumb/v7ve+simd/hard\libnosys.a(sbrk.o)
                                                  c:/program files (x86)/arm gnu toolchain arm-none-eabi/12.3 rel1/bin/../lib/gcc/arm-none-eabi/12.3.1/thumb/v7ve+simd/hard\libc_nano.a(libc_a-sbrkr.o)
_sbrk_r                                           c:/program files (x86)/arm gnu toolchain arm-none-eabi/12.3 rel1/bin/../lib/gcc/arm-none-eabi/12.3.1/thumb/v7ve+simd/hard\libc_nano.a(libc_a-sbrkr.o)
                                                  c:/program files (x86)/arm gnu toolchain arm-none-eabi/12.3 rel1/bin/../lib/gcc/arm-none-eabi/12.3.1/thumb/v7ve+simd/hard\libc_nano.a(libc_a-mallocr.o)
_stat                                             build/obj/Drivers/syscalls.o
_times                                            build/obj/Drivers/syscalls.o
_unlink                                           build/obj/Drivers/syscalls.o
_vfiprintf_r                                      c:/program files (x86)/arm gnu toolchain arm-none-eabi/12.3 rel1/bin/../lib/gcc/arm-none-eabi/12.3.1/thumb/v7ve+simd/hard\libc_nano.a(libc_a-nano-vfprintf.o)
_vfprintf_r                                       c:/program files (x86)/arm gnu toolchain arm-none-eabi/12.3 rel1/bin/../lib/gcc/arm-none-eabi/12.3.1/thumb/v7ve+simd/hard\libc_nano.a(libc_a-nano-vfprintf.o)
                                                  c:/program files (x86)/arm gnu toolchain arm-none-eabi/12.3 rel1/bin/../lib/gcc/arm-none-eabi/12.3.1/thumb/v7ve+simd/hard\libc_nano.a(libc_a-printf.o)
_wait                                             build/obj/Drivers/syscalls.o
_write                                            build/obj/Drivers/syscalls.o
                                                  c:/program files (x86)/arm gnu toolchain arm-none-eabi/12.3 rel1/bin/../lib/gcc/arm-none-eabi/12.3.1/thumb/v7ve+simd/hard\libc_nano.a(libc_a-writer.o)
_write_r                                          c:/program files (x86)/arm gnu toolchain arm-none-eabi/12.3 rel1/bin/../lib/gcc/arm-none-eabi/12.3.1/thumb/v7ve+simd/hard\libc_nano.a(libc_a-writer.o)
                                                  c:/program files (x86)/arm gnu toolchain arm-none-eabi/12.3 rel1/bin/../lib/gcc/arm-none-eabi/12.3.1/thumb/v7ve+simd/hard\libc_nano.a(libc_a-stdio.o)
end                                               c:/program files (x86)/arm gnu toolchain arm-none-eabi/12.3 rel1/bin/../lib/gcc/arm-none-eabi/12.3.1/thumb/v7ve+simd/hard\libnosys.a(sbrk.o)
environ                                           build/obj/Drivers/syscalls.o
errno                                             c:/program files (x86)/arm gnu toolchain arm-none-eabi/12.3 rel1/bin/../lib/gcc/arm-none-eabi/12.3.1/thumb/v7ve+simd/hard\libc_nano.a(libc_a-reent.o)
                                                  c:/program files (x86)/arm gnu toolchain arm-none-eabi/12.3 rel1/bin/../lib/gcc/arm-none-eabi/12.3.1/thumb/v7ve+simd/hard\libc_nano.a(libc_a-sbrkr.o)
                                                  c:/program files (x86)/arm gnu toolchain arm-none-eabi/12.3 rel1/bin/../lib/gcc/arm-none-eabi/12.3.1/thumb/v7ve+simd/hard\libc_nano.a(libc_a-isattyr.o)
                                                  c:/program files (x86)/arm gnu toolchain arm-none-eabi/12.3 rel1/bin/../lib/gcc/arm-none-eabi/12.3.1/thumb/v7ve+simd/hard\libc_nano.a(libc_a-fstatr.o)
                                                  c:/program files (x86)/arm gnu toolchain arm-none-eabi/12.3 rel1/bin/../lib/gcc/arm-none-eabi/12.3.1/thumb/v7ve+simd/hard\libc_nano.a(libc_a-writer.o)
                                                  c:/program files (x86)/arm gnu toolchain arm-none-eabi/12.3 rel1/bin/../lib/gcc/arm-none-eabi/12.3.1/thumb/v7ve+simd/hard\libc_nano.a(libc_a-readr.o)
                                                  c:/program files (x86)/arm gnu toolchain arm-none-eabi/12.3 rel1/bin/../lib/gcc/arm-none-eabi/12.3.1/thumb/v7ve+simd/hard\libc_nano.a(libc_a-lseekr.o)
                                                  c:/program files (x86)/arm gnu toolchain arm-none-eabi/12.3 rel1/bin/../lib/gcc/arm-none-eabi/12.3.1/thumb/v7ve+simd/hard\libc_nano.a(libc_a-closer.o)
fflush                                            c:/program files (x86)/arm gnu toolchain arm-none-eabi/12.3 rel1/bin/../lib/gcc/arm-none-eabi/12.3.1/thumb/v7ve+simd/hard\libc_nano.a(libc_a-fflush.o)
huart4                                            build/obj/Src/main.o
initialise_monitor_handles                        build/obj/Drivers/syscalls.o
iprintf                                           c:/program files (x86)/arm gnu toolchain arm-none-eabi/12.3 rel1/bin/../lib/gcc/arm-none-eabi/12.3.1/thumb/v7ve+simd/hard\libc_nano.a(libc_a-printf.o)
main                                              build/obj/Src/main.o
                                                  build/obj/Drivers/startup_stm32mp135fxx_ca7.o
memchr                                            c:/program files (x86)/arm gnu toolchain arm-none-eabi/12.3 rel1/bin/../lib/gcc/arm-none-eabi/12.3.1/thumb/v7ve+simd/hard\libc_nano.a(libc_a-memchr.o)
                                                  c:/program files (x86)/arm gnu toolchain arm-none-eabi/12.3 rel1/bin/../lib/gcc/arm-none-eabi/12.3.1/thumb/v7ve+simd/hard\libc_nano.a(libc_a-fvwrite.o)
                                                  c:/program files (x86)/arm gnu toolchain arm-none-eabi/12.3 rel1/bin/../lib/gcc/arm-none-eabi/12.3.1/thumb/v7ve+simd/hard\libc_nano.a(libc_a-nano-vfprintf_i.o)
                                                  c:/program files (x86)/arm gnu toolchain arm-none-eabi/12.3 rel1/bin/../lib/gcc/arm-none-eabi/12.3.1/thumb/v7ve+simd/hard\libc_nano.a(libc_a-nano-vfprintf.o)
memcpy                                            c:/program files (x86)/arm gnu toolchain arm-none-eabi/12.3 rel1/bin/../lib/gcc/arm-none-eabi/12.3.1/thumb/v7ve+simd/hard\libc_nano.a(libc_a-memcpy-stub.o)
                                                  c:/program files (x86)/arm gnu toolchain arm-none-eabi/12.3 rel1/bin/../lib/gcc/arm-none-eabi/12.3.1/thumb/v7ve+simd/hard\libc_nano.a(libc_a-reallocr.o)
                                                  c:/program files (x86)/arm gnu toolchain arm-none-eabi/12.3 rel1/bin/../lib/gcc/arm-none-eabi/12.3.1/thumb/v7ve+simd/hard\libc_nano.a(libc_a-fvwrite.o)
memmove                                           c:/program files (x86)/arm gnu toolchain arm-none-eabi/12.3 rel1/bin/../lib/gcc/arm-none-eabi/12.3.1/thumb/v7ve+simd/hard\libc_nano.a(libc_a-memmove.o)
                                                  c:/program files (x86)/arm gnu toolchain arm-none-eabi/12.3 rel1/bin/../lib/gcc/arm-none-eabi/12.3.1/thumb/v7ve+simd/hard\libc_nano.a(libc_a-fvwrite.o)
memset                                            c:/program files (x86)/arm gnu toolchain arm-none-eabi/12.3 rel1/bin/../lib/gcc/arm-none-eabi/12.3.1/thumb/v7ve+simd/hard\libc_nano.a(libc_a-memset.o)
                                                  c:/program files (x86)/arm gnu toolchain arm-none-eabi/12.3 rel1/bin/../lib/gcc/arm-none-eabi/12.3.1/thumb/v7ve+simd/hard\libc_nano.a(libc_a-findfp.o)
                                                  build/obj/Src/main.o
nCTIIRQ0_IRQHandler                               build/obj/Drivers/startup_stm32mp135fxx_ca7.o
printf                                            c:/program files (x86)/arm gnu toolchain arm-none-eabi/12.3 rel1/bin/../lib/gcc/arm-none-eabi/12.3.1/thumb/v7ve+simd/hard\libc_nano.a(libc_a-printf.o)
                                                  build/obj/Src/main.o
uwTickFreq                                        build/obj/Drivers/STM32MP13xx_HAL_Driver/Src/stm32mp13xx_hal.o
uwTickPrio                                        build/obj/Drivers/STM32MP13xx_HAL_Driver/Src/stm32mp13xx_hal.o
                                                  build/obj/Drivers/STM32MP13xx_HAL_Driver/Src/stm32mp13xx_hal_rcc.o
vfiprintf                                         c:/program files (x86)/arm gnu toolchain arm-none-eabi/12.3 rel1/bin/../lib/gcc/arm-none-eabi/12.3.1/thumb/v7ve+simd/hard\libc_nano.a(libc_a-nano-vfprintf.o)
vfprintf                                          c:/program files (x86)/arm gnu toolchain arm-none-eabi/12.3 rel1/bin/../lib/gcc/arm-none-eabi/12.3.1/thumb/v7ve+simd/hard\libc_nano.a(libc_a-nano-vfprintf.o)
